; ModuleID = '/media/D/xilinx_workspace/Ap_Ctl_Handler/solution1/.autopilot/db/a.o.3.bc'
target datalayout = "e-p:64:64:64-i1:8:8-i8:8:8-i16:16:16-i32:32:32-i64:64:64-f32:32:32-f64:64:64-v64:64:64-v128:128:128-a0:0:64-s0:64:64-f80:128:128-n8:16:32:64-S128"
target triple = "x86_64-unknown-linux-gnu"

@p_str = private unnamed_addr constant [1 x i8] zeroinitializer, align 1 ; [#uses=28 type=[1 x i8]*]
@p_str1 = private unnamed_addr constant [10 x i8] c"AXI4LiteS\00", align 1 ; [#uses=2 type=[10 x i8]*]
@p_str2 = private unnamed_addr constant [8 x i8] c"ap_none\00", align 1 ; [#uses=6 type=[8 x i8]*]
@llvm_global_ctors_0 = appending global [1 x i32] [i32 65535] ; [#uses=0 type=[1 x i32]*]
@llvm_global_ctors_1 = appending global [1 x void ()*] [void ()* @_GLOBAL__I_a] ; [#uses=0 type=[1 x void ()*]*]
@str = internal constant [15 x i8] c"ap_ctl_handler\00" ; [#uses=1 type=[15 x i8]*]

; [#uses=0]
define void @ap_ctl_handler(i1 zeroext %ap_start_enable, i1* %ap_start_out, i1 zeroext %ap_ready_in, i1 zeroext %ap_done_in, i1 zeroext %ap_idle_in, i3* %ap_status_out_V) {
  call void (...)* @_ssdm_op_SpecBitsMap(i1 %ap_start_enable), !map !7
  call void (...)* @_ssdm_op_SpecBitsMap(i1* %ap_start_out), !map !13
  call void (...)* @_ssdm_op_SpecBitsMap(i1 %ap_ready_in), !map !17
  call void (...)* @_ssdm_op_SpecBitsMap(i1 %ap_done_in), !map !21
  call void (...)* @_ssdm_op_SpecBitsMap(i1 %ap_idle_in), !map !25
  call void (...)* @_ssdm_op_SpecBitsMap(i3* %ap_status_out_V), !map !29
  call void (...)* @_ssdm_op_SpecTopModule([15 x i8]* @str) nounwind
  %ap_idle_in_read = call i1 @_ssdm_op_Read.ap_none.i1(i1 %ap_idle_in) ; [#uses=1 type=i1]
  call void @llvm.dbg.value(metadata !{i1 %ap_idle_in_read}, i64 0, metadata !33), !dbg !374 ; [debug line = 3:104] [debug variable = ap_idle_in]
  call void @llvm.dbg.value(metadata !{i1 %ap_idle_in_read}, i64 0, metadata !33), !dbg !374 ; [debug line = 3:104] [debug variable = ap_idle_in]
  call void @llvm.dbg.value(metadata !{i1 %ap_idle_in_read}, i64 0, metadata !33), !dbg !374 ; [debug line = 3:104] [debug variable = ap_idle_in]
  call void @llvm.dbg.value(metadata !{i1 %ap_idle_in_read}, i64 0, metadata !33), !dbg !374 ; [debug line = 3:104] [debug variable = ap_idle_in]
  call void @llvm.dbg.value(metadata !{i1 %ap_idle_in_read}, i64 0, metadata !33), !dbg !374 ; [debug line = 3:104] [debug variable = ap_idle_in]
  call void @llvm.dbg.value(metadata !{i1 %ap_idle_in_read}, i64 0, metadata !33), !dbg !374 ; [debug line = 3:104] [debug variable = ap_idle_in]
  call void @llvm.dbg.value(metadata !{i1 %ap_idle_in_read}, i64 0, metadata !33), !dbg !374 ; [debug line = 3:104] [debug variable = ap_idle_in]
  call void @llvm.dbg.value(metadata !{i1 %ap_idle_in_read}, i64 0, metadata !33), !dbg !374 ; [debug line = 3:104] [debug variable = ap_idle_in]
  call void @llvm.dbg.value(metadata !{i1 %ap_idle_in_read}, i64 0, metadata !33), !dbg !374 ; [debug line = 3:104] [debug variable = ap_idle_in]
  call void @llvm.dbg.value(metadata !{i1 %ap_idle_in_read}, i64 0, metadata !33), !dbg !374 ; [debug line = 3:104] [debug variable = ap_idle_in]
  call void @llvm.dbg.value(metadata !{i1 %ap_idle_in_read}, i64 0, metadata !33), !dbg !374 ; [debug line = 3:104] [debug variable = ap_idle_in]
  call void @llvm.dbg.value(metadata !{i1 %ap_idle_in_read}, i64 0, metadata !33), !dbg !374 ; [debug line = 3:104] [debug variable = ap_idle_in]
  %ap_done_in_read = call i1 @_ssdm_op_Read.ap_none.i1(i1 %ap_done_in) ; [#uses=1 type=i1]
  call void @llvm.dbg.value(metadata !{i1 %ap_done_in_read}, i64 0, metadata !375), !dbg !376 ; [debug line = 3:87] [debug variable = ap_done_in]
  call void @llvm.dbg.value(metadata !{i1 %ap_done_in_read}, i64 0, metadata !375), !dbg !376 ; [debug line = 3:87] [debug variable = ap_done_in]
  call void @llvm.dbg.value(metadata !{i1 %ap_done_in_read}, i64 0, metadata !375), !dbg !376 ; [debug line = 3:87] [debug variable = ap_done_in]
  call void @llvm.dbg.value(metadata !{i1 %ap_done_in_read}, i64 0, metadata !375), !dbg !376 ; [debug line = 3:87] [debug variable = ap_done_in]
  call void @llvm.dbg.value(metadata !{i1 %ap_done_in_read}, i64 0, metadata !375), !dbg !376 ; [debug line = 3:87] [debug variable = ap_done_in]
  call void @llvm.dbg.value(metadata !{i1 %ap_done_in_read}, i64 0, metadata !375), !dbg !376 ; [debug line = 3:87] [debug variable = ap_done_in]
  call void @llvm.dbg.value(metadata !{i1 %ap_done_in_read}, i64 0, metadata !375), !dbg !376 ; [debug line = 3:87] [debug variable = ap_done_in]
  call void @llvm.dbg.value(metadata !{i1 %ap_done_in_read}, i64 0, metadata !375), !dbg !376 ; [debug line = 3:87] [debug variable = ap_done_in]
  call void @llvm.dbg.value(metadata !{i1 %ap_done_in_read}, i64 0, metadata !375), !dbg !376 ; [debug line = 3:87] [debug variable = ap_done_in]
  call void @llvm.dbg.value(metadata !{i1 %ap_done_in_read}, i64 0, metadata !375), !dbg !376 ; [debug line = 3:87] [debug variable = ap_done_in]
  call void @llvm.dbg.value(metadata !{i1 %ap_done_in_read}, i64 0, metadata !375), !dbg !376 ; [debug line = 3:87] [debug variable = ap_done_in]
  call void @llvm.dbg.value(metadata !{i1 %ap_done_in_read}, i64 0, metadata !375), !dbg !376 ; [debug line = 3:87] [debug variable = ap_done_in]
  %ap_ready_in_read = call i1 @_ssdm_op_Read.ap_none.i1(i1 %ap_ready_in) ; [#uses=2 type=i1]
  call void @llvm.dbg.value(metadata !{i1 %ap_ready_in_read}, i64 0, metadata !377), !dbg !378 ; [debug line = 3:69] [debug variable = ap_ready_in]
  call void @llvm.dbg.value(metadata !{i1 %ap_ready_in_read}, i64 0, metadata !377), !dbg !378 ; [debug line = 3:69] [debug variable = ap_ready_in]
  call void @llvm.dbg.value(metadata !{i1 %ap_ready_in_read}, i64 0, metadata !377), !dbg !378 ; [debug line = 3:69] [debug variable = ap_ready_in]
  call void @llvm.dbg.value(metadata !{i1 %ap_ready_in_read}, i64 0, metadata !377), !dbg !378 ; [debug line = 3:69] [debug variable = ap_ready_in]
  call void @llvm.dbg.value(metadata !{i1 %ap_ready_in_read}, i64 0, metadata !377), !dbg !378 ; [debug line = 3:69] [debug variable = ap_ready_in]
  call void @llvm.dbg.value(metadata !{i1 %ap_ready_in_read}, i64 0, metadata !377), !dbg !378 ; [debug line = 3:69] [debug variable = ap_ready_in]
  call void @llvm.dbg.value(metadata !{i1 %ap_ready_in_read}, i64 0, metadata !377), !dbg !378 ; [debug line = 3:69] [debug variable = ap_ready_in]
  call void @llvm.dbg.value(metadata !{i1 %ap_ready_in_read}, i64 0, metadata !377), !dbg !378 ; [debug line = 3:69] [debug variable = ap_ready_in]
  call void @llvm.dbg.value(metadata !{i1 %ap_ready_in_read}, i64 0, metadata !377), !dbg !378 ; [debug line = 3:69] [debug variable = ap_ready_in]
  call void @llvm.dbg.value(metadata !{i1 %ap_ready_in_read}, i64 0, metadata !377), !dbg !378 ; [debug line = 3:69] [debug variable = ap_ready_in]
  call void @llvm.dbg.value(metadata !{i1 %ap_ready_in_read}, i64 0, metadata !377), !dbg !378 ; [debug line = 3:69] [debug variable = ap_ready_in]
  call void @llvm.dbg.value(metadata !{i1 %ap_ready_in_read}, i64 0, metadata !377), !dbg !378 ; [debug line = 3:69] [debug variable = ap_ready_in]
  call void @llvm.dbg.value(metadata !{i1 %ap_start_enable}, i64 0, metadata !379), !dbg !380 ; [debug line = 3:26] [debug variable = ap_start_enable]
  call void @llvm.dbg.value(metadata !{i1 %ap_start_enable}, i64 0, metadata !379), !dbg !380 ; [debug line = 3:26] [debug variable = ap_start_enable]
  call void @llvm.dbg.value(metadata !{i1 %ap_start_enable}, i64 0, metadata !379), !dbg !380 ; [debug line = 3:26] [debug variable = ap_start_enable]
  call void @llvm.dbg.value(metadata !{i1 %ap_start_enable}, i64 0, metadata !379), !dbg !380 ; [debug line = 3:26] [debug variable = ap_start_enable]
  call void @llvm.dbg.value(metadata !{i1 %ap_start_enable}, i64 0, metadata !379), !dbg !380 ; [debug line = 3:26] [debug variable = ap_start_enable]
  call void @llvm.dbg.value(metadata !{i1 %ap_start_enable}, i64 0, metadata !379), !dbg !380 ; [debug line = 3:26] [debug variable = ap_start_enable]
  call void @llvm.dbg.value(metadata !{i1 %ap_start_enable}, i64 0, metadata !379), !dbg !380 ; [debug line = 3:26] [debug variable = ap_start_enable]
  call void @llvm.dbg.value(metadata !{i1 %ap_start_enable}, i64 0, metadata !379), !dbg !380 ; [debug line = 3:26] [debug variable = ap_start_enable]
  call void @llvm.dbg.value(metadata !{i1 %ap_start_enable}, i64 0, metadata !379), !dbg !380 ; [debug line = 3:26] [debug variable = ap_start_enable]
  call void @llvm.dbg.value(metadata !{i1 %ap_start_enable}, i64 0, metadata !379), !dbg !380 ; [debug line = 3:26] [debug variable = ap_start_enable]
  call void @llvm.dbg.value(metadata !{i1 %ap_start_enable}, i64 0, metadata !379), !dbg !380 ; [debug line = 3:26] [debug variable = ap_start_enable]
  call void @llvm.dbg.value(metadata !{i1 %ap_start_enable}, i64 0, metadata !379), !dbg !380 ; [debug line = 3:26] [debug variable = ap_start_enable]
  call void @llvm.dbg.value(metadata !{i1* %ap_start_out}, i64 0, metadata !381), !dbg !382 ; [debug line = 3:50] [debug variable = ap_start_out]
  call void @llvm.dbg.value(metadata !{i1 %ap_ready_in}, i64 0, metadata !377), !dbg !378 ; [debug line = 3:69] [debug variable = ap_ready_in]
  call void @llvm.dbg.value(metadata !{i1 %ap_ready_in}, i64 0, metadata !377), !dbg !378 ; [debug line = 3:69] [debug variable = ap_ready_in]
  call void @llvm.dbg.value(metadata !{i1 %ap_ready_in}, i64 0, metadata !377), !dbg !378 ; [debug line = 3:69] [debug variable = ap_ready_in]
  call void @llvm.dbg.value(metadata !{i1 %ap_ready_in}, i64 0, metadata !377), !dbg !378 ; [debug line = 3:69] [debug variable = ap_ready_in]
  call void @llvm.dbg.value(metadata !{i1 %ap_ready_in}, i64 0, metadata !377), !dbg !378 ; [debug line = 3:69] [debug variable = ap_ready_in]
  call void @llvm.dbg.value(metadata !{i1 %ap_ready_in}, i64 0, metadata !377), !dbg !378 ; [debug line = 3:69] [debug variable = ap_ready_in]
  call void @llvm.dbg.value(metadata !{i1 %ap_ready_in}, i64 0, metadata !377), !dbg !378 ; [debug line = 3:69] [debug variable = ap_ready_in]
  call void @llvm.dbg.value(metadata !{i1 %ap_ready_in}, i64 0, metadata !377), !dbg !378 ; [debug line = 3:69] [debug variable = ap_ready_in]
  call void @llvm.dbg.value(metadata !{i1 %ap_ready_in}, i64 0, metadata !377), !dbg !378 ; [debug line = 3:69] [debug variable = ap_ready_in]
  call void @llvm.dbg.value(metadata !{i1 %ap_ready_in}, i64 0, metadata !377), !dbg !378 ; [debug line = 3:69] [debug variable = ap_ready_in]
  call void @llvm.dbg.value(metadata !{i1 %ap_ready_in}, i64 0, metadata !377), !dbg !378 ; [debug line = 3:69] [debug variable = ap_ready_in]
  call void @llvm.dbg.value(metadata !{i1 %ap_ready_in}, i64 0, metadata !377), !dbg !378 ; [debug line = 3:69] [debug variable = ap_ready_in]
  call void @llvm.dbg.value(metadata !{i1 %ap_done_in}, i64 0, metadata !375), !dbg !376 ; [debug line = 3:87] [debug variable = ap_done_in]
  call void @llvm.dbg.value(metadata !{i1 %ap_done_in}, i64 0, metadata !375), !dbg !376 ; [debug line = 3:87] [debug variable = ap_done_in]
  call void @llvm.dbg.value(metadata !{i1 %ap_done_in}, i64 0, metadata !375), !dbg !376 ; [debug line = 3:87] [debug variable = ap_done_in]
  call void @llvm.dbg.value(metadata !{i1 %ap_done_in}, i64 0, metadata !375), !dbg !376 ; [debug line = 3:87] [debug variable = ap_done_in]
  call void @llvm.dbg.value(metadata !{i1 %ap_done_in}, i64 0, metadata !375), !dbg !376 ; [debug line = 3:87] [debug variable = ap_done_in]
  call void @llvm.dbg.value(metadata !{i1 %ap_done_in}, i64 0, metadata !375), !dbg !376 ; [debug line = 3:87] [debug variable = ap_done_in]
  call void @llvm.dbg.value(metadata !{i1 %ap_done_in}, i64 0, metadata !375), !dbg !376 ; [debug line = 3:87] [debug variable = ap_done_in]
  call void @llvm.dbg.value(metadata !{i1 %ap_done_in}, i64 0, metadata !375), !dbg !376 ; [debug line = 3:87] [debug variable = ap_done_in]
  call void @llvm.dbg.value(metadata !{i1 %ap_done_in}, i64 0, metadata !375), !dbg !376 ; [debug line = 3:87] [debug variable = ap_done_in]
  call void @llvm.dbg.value(metadata !{i1 %ap_done_in}, i64 0, metadata !375), !dbg !376 ; [debug line = 3:87] [debug variable = ap_done_in]
  call void @llvm.dbg.value(metadata !{i1 %ap_done_in}, i64 0, metadata !375), !dbg !376 ; [debug line = 3:87] [debug variable = ap_done_in]
  call void @llvm.dbg.value(metadata !{i1 %ap_done_in}, i64 0, metadata !375), !dbg !376 ; [debug line = 3:87] [debug variable = ap_done_in]
  call void @llvm.dbg.value(metadata !{i1 %ap_idle_in}, i64 0, metadata !33), !dbg !374 ; [debug line = 3:104] [debug variable = ap_idle_in]
  call void @llvm.dbg.value(metadata !{i1 %ap_idle_in}, i64 0, metadata !33), !dbg !374 ; [debug line = 3:104] [debug variable = ap_idle_in]
  call void @llvm.dbg.value(metadata !{i1 %ap_idle_in}, i64 0, metadata !33), !dbg !374 ; [debug line = 3:104] [debug variable = ap_idle_in]
  call void @llvm.dbg.value(metadata !{i1 %ap_idle_in}, i64 0, metadata !33), !dbg !374 ; [debug line = 3:104] [debug variable = ap_idle_in]
  call void @llvm.dbg.value(metadata !{i1 %ap_idle_in}, i64 0, metadata !33), !dbg !374 ; [debug line = 3:104] [debug variable = ap_idle_in]
  call void @llvm.dbg.value(metadata !{i1 %ap_idle_in}, i64 0, metadata !33), !dbg !374 ; [debug line = 3:104] [debug variable = ap_idle_in]
  call void @llvm.dbg.value(metadata !{i1 %ap_idle_in}, i64 0, metadata !33), !dbg !374 ; [debug line = 3:104] [debug variable = ap_idle_in]
  call void @llvm.dbg.value(metadata !{i1 %ap_idle_in}, i64 0, metadata !33), !dbg !374 ; [debug line = 3:104] [debug variable = ap_idle_in]
  call void @llvm.dbg.value(metadata !{i1 %ap_idle_in}, i64 0, metadata !33), !dbg !374 ; [debug line = 3:104] [debug variable = ap_idle_in]
  call void @llvm.dbg.value(metadata !{i1 %ap_idle_in}, i64 0, metadata !33), !dbg !374 ; [debug line = 3:104] [debug variable = ap_idle_in]
  call void @llvm.dbg.value(metadata !{i1 %ap_idle_in}, i64 0, metadata !33), !dbg !374 ; [debug line = 3:104] [debug variable = ap_idle_in]
  call void @llvm.dbg.value(metadata !{i1 %ap_idle_in}, i64 0, metadata !33), !dbg !374 ; [debug line = 3:104] [debug variable = ap_idle_in]
  call void @llvm.dbg.value(metadata !{i3* %ap_status_out_V}, i64 0, metadata !383), !dbg !392 ; [debug line = 3:129] [debug variable = ap_status_out.V]
  call void @llvm.dbg.value(metadata !{i3* %ap_status_out_V}, i64 0, metadata !393), !dbg !401 ; [debug line = 9:102@3:144] [debug variable = ap_status_out.V]
  call void (...)* @_ssdm_op_SpecIFCore(i3* %ap_status_out_V, [1 x i8]* @p_str, [10 x i8]* @p_str1, [1 x i8]* @p_str, [1 x i8]* @p_str, [1 x i8]* @p_str, [1 x i8]* @p_str), !dbg !404 ; [debug line = 4:1]
  call void (...)* @_ssdm_op_SpecWire(i1 %ap_done_in, [8 x i8]* @p_str2, i32 0, i32 0, i32 0, i32 0, [1 x i8]* @p_str, [1 x i8]* @p_str, [1 x i8]* @p_str) nounwind, !dbg !405 ; [debug line = 5:1]
  call void (...)* @_ssdm_op_SpecIFCore(i1 %ap_start_enable, [1 x i8]* @p_str, [10 x i8]* @p_str1, [1 x i8]* @p_str, [1 x i8]* @p_str, [1 x i8]* @p_str, [1 x i8]* @p_str), !dbg !406 ; [debug line = 6:1]
  call void (...)* @_ssdm_op_SpecWire(i3* %ap_status_out_V, [8 x i8]* @p_str2, i32 0, i32 0, i32 0, i32 0, [1 x i8]* @p_str, [1 x i8]* @p_str, [1 x i8]* @p_str) nounwind, !dbg !407 ; [debug line = 7:1]
  call void (...)* @_ssdm_op_SpecWire(i1 %ap_idle_in, [8 x i8]* @p_str2, i32 0, i32 0, i32 0, i32 0, [1 x i8]* @p_str, [1 x i8]* @p_str, [1 x i8]* @p_str) nounwind, !dbg !408 ; [debug line = 8:1]
  call void (...)* @_ssdm_op_SpecWire(i1 %ap_ready_in, [8 x i8]* @p_str2, i32 0, i32 0, i32 0, i32 0, [1 x i8]* @p_str, [1 x i8]* @p_str, [1 x i8]* @p_str) nounwind, !dbg !409 ; [debug line = 9:1]
  call void (...)* @_ssdm_op_SpecWire(i1* %ap_start_out, [8 x i8]* @p_str2, i32 0, i32 0, i32 0, i32 0, [1 x i8]* @p_str, [1 x i8]* @p_str, [1 x i8]* @p_str) nounwind, !dbg !410 ; [debug line = 10:1]
  call void (...)* @_ssdm_op_SpecWire(i1 %ap_start_enable, [8 x i8]* @p_str2, i32 0, i32 0, i32 0, i32 0, [1 x i8]* @p_str, [1 x i8]* @p_str, [1 x i8]* @p_str) nounwind, !dbg !411 ; [debug line = 11:1]
  %p_s = select i1 %ap_ready_in_read, i3 -4, i3 0, !dbg !412 ; [#uses=1 type=i3] [debug line = 15:2]
  %current_status_V = select i1 %ap_ready_in_read, i3 -2, i3 2 ; [#uses=1 type=i3]
  call void @llvm.dbg.value(metadata !{i3 %current_status_V}, i64 0, metadata !413), !dbg !415 ; [debug line = 1715:147@3359:0@19:3] [debug variable = current_status.V]
  %current_status_V_1 = select i1 %ap_done_in_read, i3 %current_status_V, i3 %p_s, !dbg !876 ; [#uses=2 type=i3] [debug line = 18:2]
  call void @llvm.dbg.value(metadata !{i3 %current_status_V_1}, i64 0, metadata !413), !dbg !876 ; [debug line = 18:2] [debug variable = current_status.V]
  %tmp_1 = call i2 @_ssdm_op_PartSelect.i2.i3.i32.i32(i3 %current_status_V_1, i32 1, i32 2) ; [#uses=1 type=i2]
  %current_status_V_2 = call i3 @_ssdm_op_BitConcatenate.i3.i2.i1(i2 %tmp_1, i1 true), !dbg !877 ; [#uses=1 type=i3] [debug line = 1715:147@3359:0@22:3]
  call void @llvm.dbg.value(metadata !{i3 %current_status_V_2}, i64 0, metadata !413), !dbg !877 ; [debug line = 1715:147@3359:0@22:3] [debug variable = current_status.V]
  %p_04_1 = select i1 %ap_idle_in_read, i3 %current_status_V_2, i3 %current_status_V_1, !dbg !881 ; [#uses=1 type=i3] [debug line = 21:2]
  %tmp = icmp ne i3 %p_04_1, 0, !dbg !882         ; [#uses=1 type=i1] [debug line = 24:18]
  call void @_ssdm_op_Write.ap_none.i1P(i1* %ap_start_out, i1 %tmp), !dbg !882 ; [debug line = 24:18]
  ret void, !dbg !883                             ; [debug line = 25:1]
}

; [#uses=6]
define weak void @_ssdm_op_SpecWire(...) nounwind {
entry:
  ret void
}

; [#uses=90]
declare void @llvm.dbg.value(metadata, i64, metadata) nounwind readnone

; [#uses=1]
define weak void @_ssdm_op_SpecTopModule(...) {
entry:
  ret void
}

; [#uses=1]
declare void @_GLOBAL__I_a() nounwind section ".text.startup"

; [#uses=2]
define weak void @_ssdm_op_SpecIFCore(...) {
entry:
  ret void
}

; [#uses=6]
define weak void @_ssdm_op_SpecBitsMap(...) {
entry:
  ret void
}

; [#uses=2]
define weak i2 @_ssdm_op_PartSelect.i2.i3.i32.i32(i3, i32, i32) nounwind readnone {
entry:
  %empty = call i3 @llvm.part.select.i3(i3 %0, i32 %1, i32 %2) ; [#uses=1 type=i3]
  %empty_7 = trunc i3 %empty to i2                ; [#uses=1 type=i2]
  ret i2 %empty_7
}

; [#uses=1]
define weak i3 @_ssdm_op_BitConcatenate.i3.i2.i1(i2, i1) nounwind readnone {
entry:
  %empty = zext i2 %0 to i3                       ; [#uses=1 type=i3]
  %empty_8 = zext i1 %1 to i3                     ; [#uses=2 type=i3]
  %empty_9 = trunc i3 %empty to i2                ; [#uses=1 type=i2]
  %empty_10 = call i2 @_ssdm_op_PartSelect.i2.i3.i32.i32(i3 %empty_8, i32 1, i32 2) ; [#uses=1 type=i2]
  %empty_11 = or i2 %empty_9, %empty_10           ; [#uses=1 type=i2]
  %empty_12 = call i3 @_ssdm_op_PartSet.i3.i3.i2.i32.i32(i3 %empty_8, i2 %empty_11, i32 1, i32 2) ; [#uses=1 type=i3]
  ret i3 %empty_12
}

; [#uses=3]
define weak i1 @_ssdm_op_Read.ap_none.i1(i1) {
entry:
  ret i1 %0
}

; [#uses=1]
define weak void @_ssdm_op_Write.ap_none.i1P(i1*, i1) {
entry:
  store i1 %1, i1* %0
  ret void
}

; [#uses=1]
declare i3 @llvm.part.select.i3(i3, i32, i32) nounwind readnone

; [#uses=1]
define weak i3 @_ssdm_op_PartSet.i3.i3.i2.i32.i32(i3, i2, i32, i32) nounwind readnone {
entry:
  %empty = call i3 @llvm.part.set.i3.i2(i3 %0, i2 %1, i32 %2, i32 %3) ; [#uses=1 type=i3]
  ret i3 %empty
}

; [#uses=1]
declare i3 @llvm.part.set.i3.i2(i3, i2, i32, i32) nounwind readnone

!llvm.map.gv = !{!0}

!0 = metadata !{metadata !1, [1 x i32]* @llvm_global_ctors_0}
!1 = metadata !{metadata !2}
!2 = metadata !{i32 0, i32 31, metadata !3}
!3 = metadata !{metadata !4}
!4 = metadata !{metadata !"llvm.global_ctors.0", metadata !5, metadata !""}
!5 = metadata !{metadata !6}
!6 = metadata !{i32 0, i32 0, i32 1}
!7 = metadata !{metadata !8}
!8 = metadata !{i32 0, i32 0, metadata !9}
!9 = metadata !{metadata !10}
!10 = metadata !{metadata !"ap_start_enable", metadata !11, metadata !"bool"}
!11 = metadata !{metadata !12}
!12 = metadata !{i32 0, i32 0, i32 0}
!13 = metadata !{metadata !14}
!14 = metadata !{i32 0, i32 0, metadata !15}
!15 = metadata !{metadata !16}
!16 = metadata !{metadata !"ap_start_out", metadata !5, metadata !"bool"}
!17 = metadata !{metadata !18}
!18 = metadata !{i32 0, i32 0, metadata !19}
!19 = metadata !{metadata !20}
!20 = metadata !{metadata !"ap_ready_in", metadata !11, metadata !"bool"}
!21 = metadata !{metadata !22}
!22 = metadata !{i32 0, i32 0, metadata !23}
!23 = metadata !{metadata !24}
!24 = metadata !{metadata !"ap_done_in", metadata !11, metadata !"bool"}
!25 = metadata !{metadata !26}
!26 = metadata !{i32 0, i32 0, metadata !27}
!27 = metadata !{metadata !28}
!28 = metadata !{metadata !"ap_idle_in", metadata !11, metadata !"bool"}
!29 = metadata !{metadata !30}
!30 = metadata !{i32 0, i32 2, metadata !31}
!31 = metadata !{metadata !32}
!32 = metadata !{metadata !"ap_status_out.V", metadata !5, metadata !"uint3"}
!33 = metadata !{i32 786689, metadata !34, metadata !"ap_idle_in", metadata !35, i32 83886083, metadata !38, i32 0, i32 0} ; [ DW_TAG_arg_variable ]
!34 = metadata !{i32 786478, i32 0, metadata !35, metadata !"ap_ctl_handler", metadata !"ap_ctl_handler", metadata !"_Z14ap_ctl_handlerbPbbbbP7ap_uintILi3EE", metadata !35, i32 3, metadata !36, i1 false, i1 true, i32 0, i32 0, null, i32 256, i1 false, null, null, null, metadata !58, i32 3} ; [ DW_TAG_subprogram ]
!35 = metadata !{i32 786473, metadata !"Ap_Ctl_Handler/source/ap_ctl_handler.cpp", metadata !"/media/D/xilinx_workspace", null} ; [ DW_TAG_file_type ]
!36 = metadata !{i32 786453, i32 0, metadata !"", i32 0, i32 0, i64 0, i64 0, i64 0, i32 0, null, metadata !37, i32 0, i32 0} ; [ DW_TAG_subroutine_type ]
!37 = metadata !{null, metadata !38, metadata !39, metadata !38, metadata !38, metadata !38, metadata !40}
!38 = metadata !{i32 786468, null, metadata !"bool", null, i32 0, i64 8, i64 8, i64 0, i32 0, i32 2} ; [ DW_TAG_base_type ]
!39 = metadata !{i32 786447, null, metadata !"", null, i32 0, i64 64, i64 64, i64 0, i32 0, metadata !38} ; [ DW_TAG_pointer_type ]
!40 = metadata !{i32 786447, null, metadata !"", null, i32 0, i64 64, i64 64, i64 0, i32 0, metadata !41} ; [ DW_TAG_pointer_type ]
!41 = metadata !{i32 786434, null, metadata !"ap_uint<3>", metadata !42, i32 134, i64 8, i64 8, i32 0, i32 0, null, metadata !43, i32 0, null, metadata !373} ; [ DW_TAG_class_type ]
!42 = metadata !{i32 786473, metadata !"/home/michael/Xilinx/Vivado_HLS/2014.1/common/technology/autopilot/ap_int.h", metadata !"/media/D/xilinx_workspace", null} ; [ DW_TAG_file_type ]
!43 = metadata !{metadata !44, metadata !297, metadata !301, metadata !306, metadata !307, metadata !310, metadata !313, metadata !316, metadata !319, metadata !322, metadata !325, metadata !328, metadata !331, metadata !334, metadata !337, metadata !340, metadata !343, metadata !346, metadata !349, metadata !352, metadata !355, metadata !360, metadata !361, metadata !364, metadata !365, metadata !370, metadata !371}
!44 = metadata !{i32 786460, metadata !41, null, metadata !42, i32 0, i64 0, i64 0, i64 0, i32 0, metadata !45} ; [ DW_TAG_inheritance ]
!45 = metadata !{i32 786434, null, metadata !"ap_int_base<3, false, true>", metadata !46, i32 1302, i64 8, i64 8, i32 0, i32 0, null, metadata !47, i32 0, null, metadata !295} ; [ DW_TAG_class_type ]
!46 = metadata !{i32 786473, metadata !"/home/michael/Xilinx/Vivado_HLS/2014.1/common/technology/autopilot/ap_int_syn.h", metadata !"/media/D/xilinx_workspace", null} ; [ DW_TAG_file_type ]
!47 = metadata !{metadata !48, metadata !69, metadata !73, metadata !80, metadata !81, metadata !84, metadata !88, metadata !92, metadata !96, metadata !100, metadata !103, metadata !107, metadata !111, metadata !115, metadata !120, metadata !125, metadata !129, metadata !133, metadata !139, metadata !142, metadata !147, metadata !150, metadata !151, metadata !152, metadata !155, metadata !156, metadata !159, metadata !162, metadata !165, metadata !168, metadata !178, metadata !181, metadata !184, metadata !187, metadata !190, metadata !193, metadata !196, metadata !199, metadata !202, metadata !203, metadata !208, metadata !211, metadata !212, metadata !213, metadata !214, metadata !215, metadata !216, metadata !219, metadata !220, metadata !223, metadata !224, metadata !225, metadata !226, metadata !227, metadata !228, metadata !231, metadata !232, metadata !233, metadata !236, metadata !237, metadata !240, metadata !241, metadata !245, metadata !249, metadata !250, metadata !253, metadata !254, metadata !258, metadata !259, metadata !260, metadata !261, metadata !264, metadata !265, metadata !266, metadata !267, metadata !268, metadata !269, metadata !270, metadata !271, metadata !272, metadata !273, metadata !274, metadata !275, metadata !285, metadata !288, metadata !291}
!48 = metadata !{i32 786460, metadata !45, null, metadata !46, i32 0, i64 0, i64 0, i64 0, i32 0, metadata !49} ; [ DW_TAG_inheritance ]
!49 = metadata !{i32 786434, null, metadata !"ssdm_int<3 + 1024 * 0, false>", metadata !50, i32 5, i64 8, i64 8, i32 0, i32 0, null, metadata !51, i32 0, null, metadata !65} ; [ DW_TAG_class_type ]
!50 = metadata !{i32 786473, metadata !"/home/michael/Xilinx/Vivado_HLS/2014.1/common/technology/autopilot/etc/autopilot_dt.def", metadata !"/media/D/xilinx_workspace", null} ; [ DW_TAG_file_type ]
!51 = metadata !{metadata !52, metadata !54, metadata !60}
!52 = metadata !{i32 786445, metadata !49, metadata !"V", metadata !50, i32 5, i64 3, i64 4, i64 0, i32 0, metadata !53} ; [ DW_TAG_member ]
!53 = metadata !{i32 786468, null, metadata !"uint3", null, i32 0, i64 3, i64 4, i64 0, i32 0, i32 7} ; [ DW_TAG_base_type ]
!54 = metadata !{i32 786478, i32 0, metadata !49, metadata !"ssdm_int", metadata !"ssdm_int", metadata !"", metadata !50, i32 5, metadata !55, i1 false, i1 false, i32 0, i32 0, null, i32 256, i1 false, null, null, i32 0, metadata !58, i32 5} ; [ DW_TAG_subprogram ]
!55 = metadata !{i32 786453, i32 0, metadata !"", i32 0, i32 0, i64 0, i64 0, i64 0, i32 0, null, metadata !56, i32 0, i32 0} ; [ DW_TAG_subroutine_type ]
!56 = metadata !{null, metadata !57}
!57 = metadata !{i32 786447, i32 0, metadata !"", i32 0, i32 0, i64 64, i64 64, i64 0, i32 64, metadata !49} ; [ DW_TAG_pointer_type ]
!58 = metadata !{metadata !59}
!59 = metadata !{i32 786468}                      ; [ DW_TAG_base_type ]
!60 = metadata !{i32 786478, i32 0, metadata !49, metadata !"ssdm_int", metadata !"ssdm_int", metadata !"", metadata !50, i32 5, metadata !61, i1 false, i1 false, i32 0, i32 0, null, i32 320, i1 false, null, null, i32 0, metadata !58, i32 5} ; [ DW_TAG_subprogram ]
!61 = metadata !{i32 786453, i32 0, metadata !"", i32 0, i32 0, i64 0, i64 0, i64 0, i32 0, null, metadata !62, i32 0, i32 0} ; [ DW_TAG_subroutine_type ]
!62 = metadata !{null, metadata !57, metadata !63}
!63 = metadata !{i32 786448, null, null, null, i32 0, i64 0, i64 0, i64 0, i32 0, metadata !64} ; [ DW_TAG_reference_type ]
!64 = metadata !{i32 786470, null, metadata !"", null, i32 0, i64 0, i64 0, i64 0, i32 0, metadata !49} ; [ DW_TAG_const_type ]
!65 = metadata !{metadata !66, metadata !68}
!66 = metadata !{i32 786480, null, metadata !"_AP_N", metadata !67, i64 3, null, i32 0, i32 0} ; [ DW_TAG_template_value_parameter ]
!67 = metadata !{i32 786468, null, metadata !"int", null, i32 0, i64 32, i64 32, i64 0, i32 0, i32 5} ; [ DW_TAG_base_type ]
!68 = metadata !{i32 786480, null, metadata !"_AP_S", metadata !38, i64 0, null, i32 0, i32 0} ; [ DW_TAG_template_value_parameter ]
!69 = metadata !{i32 786478, i32 0, metadata !45, metadata !"ap_int_base", metadata !"ap_int_base", metadata !"", metadata !46, i32 1340, metadata !70, i1 false, i1 false, i32 0, i32 0, null, i32 256, i1 false, null, null, i32 0, metadata !58, i32 1340} ; [ DW_TAG_subprogram ]
!70 = metadata !{i32 786453, i32 0, metadata !"", i32 0, i32 0, i64 0, i64 0, i64 0, i32 0, null, metadata !71, i32 0, i32 0} ; [ DW_TAG_subroutine_type ]
!71 = metadata !{null, metadata !72}
!72 = metadata !{i32 786447, i32 0, metadata !"", i32 0, i32 0, i64 64, i64 64, i64 0, i32 64, metadata !45} ; [ DW_TAG_pointer_type ]
!73 = metadata !{i32 786478, i32 0, metadata !45, metadata !"ap_int_base<3, false>", metadata !"ap_int_base<3, false>", metadata !"", metadata !46, i32 1352, metadata !74, i1 false, i1 false, i32 0, i32 0, null, i32 256, i1 false, null, metadata !77, i32 0, metadata !58, i32 1352} ; [ DW_TAG_subprogram ]
!74 = metadata !{i32 786453, i32 0, metadata !"", i32 0, i32 0, i64 0, i64 0, i64 0, i32 0, null, metadata !75, i32 0, i32 0} ; [ DW_TAG_subroutine_type ]
!75 = metadata !{null, metadata !72, metadata !76}
!76 = metadata !{i32 786448, null, null, null, i32 0, i64 0, i64 0, i64 0, i32 0, metadata !45} ; [ DW_TAG_reference_type ]
!77 = metadata !{metadata !78, metadata !79}
!78 = metadata !{i32 786480, null, metadata !"_AP_W2", metadata !67, i64 3, null, i32 0, i32 0} ; [ DW_TAG_template_value_parameter ]
!79 = metadata !{i32 786480, null, metadata !"_AP_S2", metadata !38, i64 0, null, i32 0, i32 0} ; [ DW_TAG_template_value_parameter ]
!80 = metadata !{i32 786478, i32 0, metadata !45, metadata !"ap_int_base<3, false>", metadata !"ap_int_base<3, false>", metadata !"", metadata !46, i32 1355, metadata !74, i1 false, i1 false, i32 0, i32 0, null, i32 256, i1 false, null, metadata !77, i32 0, metadata !58, i32 1355} ; [ DW_TAG_subprogram ]
!81 = metadata !{i32 786478, i32 0, metadata !45, metadata !"ap_int_base", metadata !"ap_int_base", metadata !"", metadata !46, i32 1362, metadata !82, i1 false, i1 false, i32 0, i32 0, null, i32 384, i1 false, null, null, i32 0, metadata !58, i32 1362} ; [ DW_TAG_subprogram ]
!82 = metadata !{i32 786453, i32 0, metadata !"", i32 0, i32 0, i64 0, i64 0, i64 0, i32 0, null, metadata !83, i32 0, i32 0} ; [ DW_TAG_subroutine_type ]
!83 = metadata !{null, metadata !72, metadata !38}
!84 = metadata !{i32 786478, i32 0, metadata !45, metadata !"ap_int_base", metadata !"ap_int_base", metadata !"", metadata !46, i32 1363, metadata !85, i1 false, i1 false, i32 0, i32 0, null, i32 384, i1 false, null, null, i32 0, metadata !58, i32 1363} ; [ DW_TAG_subprogram ]
!85 = metadata !{i32 786453, i32 0, metadata !"", i32 0, i32 0, i64 0, i64 0, i64 0, i32 0, null, metadata !86, i32 0, i32 0} ; [ DW_TAG_subroutine_type ]
!86 = metadata !{null, metadata !72, metadata !87}
!87 = metadata !{i32 786468, null, metadata !"signed char", null, i32 0, i64 8, i64 8, i64 0, i32 0, i32 6} ; [ DW_TAG_base_type ]
!88 = metadata !{i32 786478, i32 0, metadata !45, metadata !"ap_int_base", metadata !"ap_int_base", metadata !"", metadata !46, i32 1364, metadata !89, i1 false, i1 false, i32 0, i32 0, null, i32 384, i1 false, null, null, i32 0, metadata !58, i32 1364} ; [ DW_TAG_subprogram ]
!89 = metadata !{i32 786453, i32 0, metadata !"", i32 0, i32 0, i64 0, i64 0, i64 0, i32 0, null, metadata !90, i32 0, i32 0} ; [ DW_TAG_subroutine_type ]
!90 = metadata !{null, metadata !72, metadata !91}
!91 = metadata !{i32 786468, null, metadata !"unsigned char", null, i32 0, i64 8, i64 8, i64 0, i32 0, i32 8} ; [ DW_TAG_base_type ]
!92 = metadata !{i32 786478, i32 0, metadata !45, metadata !"ap_int_base", metadata !"ap_int_base", metadata !"", metadata !46, i32 1365, metadata !93, i1 false, i1 false, i32 0, i32 0, null, i32 384, i1 false, null, null, i32 0, metadata !58, i32 1365} ; [ DW_TAG_subprogram ]
!93 = metadata !{i32 786453, i32 0, metadata !"", i32 0, i32 0, i64 0, i64 0, i64 0, i32 0, null, metadata !94, i32 0, i32 0} ; [ DW_TAG_subroutine_type ]
!94 = metadata !{null, metadata !72, metadata !95}
!95 = metadata !{i32 786468, null, metadata !"short", null, i32 0, i64 16, i64 16, i64 0, i32 0, i32 5} ; [ DW_TAG_base_type ]
!96 = metadata !{i32 786478, i32 0, metadata !45, metadata !"ap_int_base", metadata !"ap_int_base", metadata !"", metadata !46, i32 1366, metadata !97, i1 false, i1 false, i32 0, i32 0, null, i32 384, i1 false, null, null, i32 0, metadata !58, i32 1366} ; [ DW_TAG_subprogram ]
!97 = metadata !{i32 786453, i32 0, metadata !"", i32 0, i32 0, i64 0, i64 0, i64 0, i32 0, null, metadata !98, i32 0, i32 0} ; [ DW_TAG_subroutine_type ]
!98 = metadata !{null, metadata !72, metadata !99}
!99 = metadata !{i32 786468, null, metadata !"unsigned short", null, i32 0, i64 16, i64 16, i64 0, i32 0, i32 7} ; [ DW_TAG_base_type ]
!100 = metadata !{i32 786478, i32 0, metadata !45, metadata !"ap_int_base", metadata !"ap_int_base", metadata !"", metadata !46, i32 1367, metadata !101, i1 false, i1 false, i32 0, i32 0, null, i32 384, i1 false, null, null, i32 0, metadata !58, i32 1367} ; [ DW_TAG_subprogram ]
!101 = metadata !{i32 786453, i32 0, metadata !"", i32 0, i32 0, i64 0, i64 0, i64 0, i32 0, null, metadata !102, i32 0, i32 0} ; [ DW_TAG_subroutine_type ]
!102 = metadata !{null, metadata !72, metadata !67}
!103 = metadata !{i32 786478, i32 0, metadata !45, metadata !"ap_int_base", metadata !"ap_int_base", metadata !"", metadata !46, i32 1368, metadata !104, i1 false, i1 false, i32 0, i32 0, null, i32 384, i1 false, null, null, i32 0, metadata !58, i32 1368} ; [ DW_TAG_subprogram ]
!104 = metadata !{i32 786453, i32 0, metadata !"", i32 0, i32 0, i64 0, i64 0, i64 0, i32 0, null, metadata !105, i32 0, i32 0} ; [ DW_TAG_subroutine_type ]
!105 = metadata !{null, metadata !72, metadata !106}
!106 = metadata !{i32 786468, null, metadata !"unsigned int", null, i32 0, i64 32, i64 32, i64 0, i32 0, i32 7} ; [ DW_TAG_base_type ]
!107 = metadata !{i32 786478, i32 0, metadata !45, metadata !"ap_int_base", metadata !"ap_int_base", metadata !"", metadata !46, i32 1369, metadata !108, i1 false, i1 false, i32 0, i32 0, null, i32 384, i1 false, null, null, i32 0, metadata !58, i32 1369} ; [ DW_TAG_subprogram ]
!108 = metadata !{i32 786453, i32 0, metadata !"", i32 0, i32 0, i64 0, i64 0, i64 0, i32 0, null, metadata !109, i32 0, i32 0} ; [ DW_TAG_subroutine_type ]
!109 = metadata !{null, metadata !72, metadata !110}
!110 = metadata !{i32 786468, null, metadata !"long int", null, i32 0, i64 64, i64 64, i64 0, i32 0, i32 5} ; [ DW_TAG_base_type ]
!111 = metadata !{i32 786478, i32 0, metadata !45, metadata !"ap_int_base", metadata !"ap_int_base", metadata !"", metadata !46, i32 1370, metadata !112, i1 false, i1 false, i32 0, i32 0, null, i32 384, i1 false, null, null, i32 0, metadata !58, i32 1370} ; [ DW_TAG_subprogram ]
!112 = metadata !{i32 786453, i32 0, metadata !"", i32 0, i32 0, i64 0, i64 0, i64 0, i32 0, null, metadata !113, i32 0, i32 0} ; [ DW_TAG_subroutine_type ]
!113 = metadata !{null, metadata !72, metadata !114}
!114 = metadata !{i32 786468, null, metadata !"long unsigned int", null, i32 0, i64 64, i64 64, i64 0, i32 0, i32 7} ; [ DW_TAG_base_type ]
!115 = metadata !{i32 786478, i32 0, metadata !45, metadata !"ap_int_base", metadata !"ap_int_base", metadata !"", metadata !46, i32 1371, metadata !116, i1 false, i1 false, i32 0, i32 0, null, i32 384, i1 false, null, null, i32 0, metadata !58, i32 1371} ; [ DW_TAG_subprogram ]
!116 = metadata !{i32 786453, i32 0, metadata !"", i32 0, i32 0, i64 0, i64 0, i64 0, i32 0, null, metadata !117, i32 0, i32 0} ; [ DW_TAG_subroutine_type ]
!117 = metadata !{null, metadata !72, metadata !118}
!118 = metadata !{i32 786454, null, metadata !"ap_slong", metadata !46, i32 66, i64 0, i64 0, i64 0, i32 0, metadata !119} ; [ DW_TAG_typedef ]
!119 = metadata !{i32 786468, null, metadata !"long long int", null, i32 0, i64 64, i64 64, i64 0, i32 0, i32 5} ; [ DW_TAG_base_type ]
!120 = metadata !{i32 786478, i32 0, metadata !45, metadata !"ap_int_base", metadata !"ap_int_base", metadata !"", metadata !46, i32 1372, metadata !121, i1 false, i1 false, i32 0, i32 0, null, i32 384, i1 false, null, null, i32 0, metadata !58, i32 1372} ; [ DW_TAG_subprogram ]
!121 = metadata !{i32 786453, i32 0, metadata !"", i32 0, i32 0, i64 0, i64 0, i64 0, i32 0, null, metadata !122, i32 0, i32 0} ; [ DW_TAG_subroutine_type ]
!122 = metadata !{null, metadata !72, metadata !123}
!123 = metadata !{i32 786454, null, metadata !"ap_ulong", metadata !46, i32 65, i64 0, i64 0, i64 0, i32 0, metadata !124} ; [ DW_TAG_typedef ]
!124 = metadata !{i32 786468, null, metadata !"long long unsigned int", null, i32 0, i64 64, i64 64, i64 0, i32 0, i32 7} ; [ DW_TAG_base_type ]
!125 = metadata !{i32 786478, i32 0, metadata !45, metadata !"ap_int_base", metadata !"ap_int_base", metadata !"", metadata !46, i32 1373, metadata !126, i1 false, i1 false, i32 0, i32 0, null, i32 384, i1 false, null, null, i32 0, metadata !58, i32 1373} ; [ DW_TAG_subprogram ]
!126 = metadata !{i32 786453, i32 0, metadata !"", i32 0, i32 0, i64 0, i64 0, i64 0, i32 0, null, metadata !127, i32 0, i32 0} ; [ DW_TAG_subroutine_type ]
!127 = metadata !{null, metadata !72, metadata !128}
!128 = metadata !{i32 786468, null, metadata !"float", null, i32 0, i64 32, i64 32, i64 0, i32 0, i32 4} ; [ DW_TAG_base_type ]
!129 = metadata !{i32 786478, i32 0, metadata !45, metadata !"ap_int_base", metadata !"ap_int_base", metadata !"", metadata !46, i32 1374, metadata !130, i1 false, i1 false, i32 0, i32 0, null, i32 384, i1 false, null, null, i32 0, metadata !58, i32 1374} ; [ DW_TAG_subprogram ]
!130 = metadata !{i32 786453, i32 0, metadata !"", i32 0, i32 0, i64 0, i64 0, i64 0, i32 0, null, metadata !131, i32 0, i32 0} ; [ DW_TAG_subroutine_type ]
!131 = metadata !{null, metadata !72, metadata !132}
!132 = metadata !{i32 786468, null, metadata !"double", null, i32 0, i64 64, i64 64, i64 0, i32 0, i32 4} ; [ DW_TAG_base_type ]
!133 = metadata !{i32 786478, i32 0, metadata !45, metadata !"ap_int_base", metadata !"ap_int_base", metadata !"", metadata !46, i32 1401, metadata !134, i1 false, i1 false, i32 0, i32 0, null, i32 256, i1 false, null, null, i32 0, metadata !58, i32 1401} ; [ DW_TAG_subprogram ]
!134 = metadata !{i32 786453, i32 0, metadata !"", i32 0, i32 0, i64 0, i64 0, i64 0, i32 0, null, metadata !135, i32 0, i32 0} ; [ DW_TAG_subroutine_type ]
!135 = metadata !{null, metadata !72, metadata !136}
!136 = metadata !{i32 786447, null, metadata !"", null, i32 0, i64 64, i64 64, i64 0, i32 0, metadata !137} ; [ DW_TAG_pointer_type ]
!137 = metadata !{i32 786470, null, metadata !"", null, i32 0, i64 0, i64 0, i64 0, i32 0, metadata !138} ; [ DW_TAG_const_type ]
!138 = metadata !{i32 786468, null, metadata !"char", null, i32 0, i64 8, i64 8, i64 0, i32 0, i32 6} ; [ DW_TAG_base_type ]
!139 = metadata !{i32 786478, i32 0, metadata !45, metadata !"ap_int_base", metadata !"ap_int_base", metadata !"", metadata !46, i32 1408, metadata !140, i1 false, i1 false, i32 0, i32 0, null, i32 256, i1 false, null, null, i32 0, metadata !58, i32 1408} ; [ DW_TAG_subprogram ]
!140 = metadata !{i32 786453, i32 0, metadata !"", i32 0, i32 0, i64 0, i64 0, i64 0, i32 0, null, metadata !141, i32 0, i32 0} ; [ DW_TAG_subroutine_type ]
!141 = metadata !{null, metadata !72, metadata !136, metadata !87}
!142 = metadata !{i32 786478, i32 0, metadata !45, metadata !"read", metadata !"read", metadata !"_ZNV11ap_int_baseILi3ELb0ELb1EE4readEv", metadata !46, i32 1429, metadata !143, i1 false, i1 false, i32 0, i32 0, null, i32 256, i1 false, null, null, i32 0, metadata !58, i32 1429} ; [ DW_TAG_subprogram ]
!143 = metadata !{i32 786453, i32 0, metadata !"", i32 0, i32 0, i64 0, i64 0, i64 0, i32 0, null, metadata !144, i32 0, i32 0} ; [ DW_TAG_subroutine_type ]
!144 = metadata !{metadata !45, metadata !145}
!145 = metadata !{i32 786447, i32 0, metadata !"", i32 0, i32 0, i64 64, i64 64, i64 0, i32 64, metadata !146} ; [ DW_TAG_pointer_type ]
!146 = metadata !{i32 786485, null, metadata !"", null, i32 0, i64 0, i64 0, i64 0, i32 0, metadata !45} ; [ DW_TAG_volatile_type ]
!147 = metadata !{i32 786478, i32 0, metadata !45, metadata !"write", metadata !"write", metadata !"_ZNV11ap_int_baseILi3ELb0ELb1EE5writeERKS0_", metadata !46, i32 1435, metadata !148, i1 false, i1 false, i32 0, i32 0, null, i32 256, i1 false, null, null, i32 0, metadata !58, i32 1435} ; [ DW_TAG_subprogram ]
!148 = metadata !{i32 786453, i32 0, metadata !"", i32 0, i32 0, i64 0, i64 0, i64 0, i32 0, null, metadata !149, i32 0, i32 0} ; [ DW_TAG_subroutine_type ]
!149 = metadata !{null, metadata !145, metadata !76}
!150 = metadata !{i32 786478, i32 0, metadata !45, metadata !"operator=", metadata !"operator=", metadata !"_ZNV11ap_int_baseILi3ELb0ELb1EEaSERVKS0_", metadata !46, i32 1447, metadata !148, i1 false, i1 false, i32 0, i32 0, null, i32 256, i1 false, null, null, i32 0, metadata !58, i32 1447} ; [ DW_TAG_subprogram ]
!151 = metadata !{i32 786478, i32 0, metadata !45, metadata !"operator=", metadata !"operator=", metadata !"_ZNV11ap_int_baseILi3ELb0ELb1EEaSERKS0_", metadata !46, i32 1456, metadata !148, i1 false, i1 false, i32 0, i32 0, null, i32 256, i1 false, null, null, i32 0, metadata !58, i32 1456} ; [ DW_TAG_subprogram ]
!152 = metadata !{i32 786478, i32 0, metadata !45, metadata !"operator=", metadata !"operator=", metadata !"_ZN11ap_int_baseILi3ELb0ELb1EEaSERVKS0_", metadata !46, i32 1479, metadata !153, i1 false, i1 false, i32 0, i32 0, null, i32 256, i1 false, null, null, i32 0, metadata !58, i32 1479} ; [ DW_TAG_subprogram ]
!153 = metadata !{i32 786453, i32 0, metadata !"", i32 0, i32 0, i64 0, i64 0, i64 0, i32 0, null, metadata !154, i32 0, i32 0} ; [ DW_TAG_subroutine_type ]
!154 = metadata !{metadata !76, metadata !72, metadata !76}
!155 = metadata !{i32 786478, i32 0, metadata !45, metadata !"operator=", metadata !"operator=", metadata !"_ZN11ap_int_baseILi3ELb0ELb1EEaSERKS0_", metadata !46, i32 1484, metadata !153, i1 false, i1 false, i32 0, i32 0, null, i32 256, i1 false, null, null, i32 0, metadata !58, i32 1484} ; [ DW_TAG_subprogram ]
!156 = metadata !{i32 786478, i32 0, metadata !45, metadata !"operator=", metadata !"operator=", metadata !"_ZN11ap_int_baseILi3ELb0ELb1EEaSEPKc", metadata !46, i32 1488, metadata !157, i1 false, i1 false, i32 0, i32 0, null, i32 256, i1 false, null, null, i32 0, metadata !58, i32 1488} ; [ DW_TAG_subprogram ]
!157 = metadata !{i32 786453, i32 0, metadata !"", i32 0, i32 0, i64 0, i64 0, i64 0, i32 0, null, metadata !158, i32 0, i32 0} ; [ DW_TAG_subroutine_type ]
!158 = metadata !{metadata !76, metadata !72, metadata !136}
!159 = metadata !{i32 786478, i32 0, metadata !45, metadata !"set", metadata !"set", metadata !"_ZN11ap_int_baseILi3ELb0ELb1EE3setEPKca", metadata !46, i32 1496, metadata !160, i1 false, i1 false, i32 0, i32 0, null, i32 256, i1 false, null, null, i32 0, metadata !58, i32 1496} ; [ DW_TAG_subprogram ]
!160 = metadata !{i32 786453, i32 0, metadata !"", i32 0, i32 0, i64 0, i64 0, i64 0, i32 0, null, metadata !161, i32 0, i32 0} ; [ DW_TAG_subroutine_type ]
!161 = metadata !{metadata !76, metadata !72, metadata !136, metadata !87}
!162 = metadata !{i32 786478, i32 0, metadata !45, metadata !"operator=", metadata !"operator=", metadata !"_ZN11ap_int_baseILi3ELb0ELb1EEaSEy", metadata !46, i32 1505, metadata !163, i1 false, i1 false, i32 0, i32 0, null, i32 256, i1 false, null, null, i32 0, metadata !58, i32 1505} ; [ DW_TAG_subprogram ]
!163 = metadata !{i32 786453, i32 0, metadata !"", i32 0, i32 0, i64 0, i64 0, i64 0, i32 0, null, metadata !164, i32 0, i32 0} ; [ DW_TAG_subroutine_type ]
!164 = metadata !{metadata !76, metadata !72, metadata !124}
!165 = metadata !{i32 786478, i32 0, metadata !45, metadata !"operator=", metadata !"operator=", metadata !"_ZN11ap_int_baseILi3ELb0ELb1EEaSEx", metadata !46, i32 1510, metadata !166, i1 false, i1 false, i32 0, i32 0, null, i32 256, i1 false, null, null, i32 0, metadata !58, i32 1510} ; [ DW_TAG_subprogram ]
!166 = metadata !{i32 786453, i32 0, metadata !"", i32 0, i32 0, i64 0, i64 0, i64 0, i32 0, null, metadata !167, i32 0, i32 0} ; [ DW_TAG_subroutine_type ]
!167 = metadata !{metadata !76, metadata !72, metadata !119}
!168 = metadata !{i32 786478, i32 0, metadata !45, metadata !"operator unsigned long long", metadata !"operator unsigned long long", metadata !"_ZNK11ap_int_baseILi3ELb0ELb1EEcvyEv", metadata !46, i32 1551, metadata !169, i1 false, i1 false, i32 0, i32 0, null, i32 256, i1 false, null, null, i32 0, metadata !58, i32 1551} ; [ DW_TAG_subprogram ]
!169 = metadata !{i32 786453, i32 0, metadata !"", i32 0, i32 0, i64 0, i64 0, i64 0, i32 0, null, metadata !170, i32 0, i32 0} ; [ DW_TAG_subroutine_type ]
!170 = metadata !{metadata !171, metadata !176}
!171 = metadata !{i32 786454, metadata !45, metadata !"RetType", metadata !46, i32 1307, i64 0, i64 0, i64 0, i32 0, metadata !172} ; [ DW_TAG_typedef ]
!172 = metadata !{i32 786454, metadata !173, metadata !"Type", metadata !46, i32 1292, i64 0, i64 0, i64 0, i32 0, metadata !123} ; [ DW_TAG_typedef ]
!173 = metadata !{i32 786434, null, metadata !"retval<false>", metadata !46, i32 1291, i64 8, i64 8, i32 0, i32 0, null, metadata !174, i32 0, null, metadata !175} ; [ DW_TAG_class_type ]
!174 = metadata !{i32 0}
!175 = metadata !{metadata !68}
!176 = metadata !{i32 786447, i32 0, metadata !"", i32 0, i32 0, i64 64, i64 64, i64 0, i32 64, metadata !177} ; [ DW_TAG_pointer_type ]
!177 = metadata !{i32 786470, null, metadata !"", null, i32 0, i64 0, i64 0, i64 0, i32 0, metadata !45} ; [ DW_TAG_const_type ]
!178 = metadata !{i32 786478, i32 0, metadata !45, metadata !"to_bool", metadata !"to_bool", metadata !"_ZNK11ap_int_baseILi3ELb0ELb1EE7to_boolEv", metadata !46, i32 1557, metadata !179, i1 false, i1 false, i32 0, i32 0, null, i32 256, i1 false, null, null, i32 0, metadata !58, i32 1557} ; [ DW_TAG_subprogram ]
!179 = metadata !{i32 786453, i32 0, metadata !"", i32 0, i32 0, i64 0, i64 0, i64 0, i32 0, null, metadata !180, i32 0, i32 0} ; [ DW_TAG_subroutine_type ]
!180 = metadata !{metadata !38, metadata !176}
!181 = metadata !{i32 786478, i32 0, metadata !45, metadata !"to_int", metadata !"to_int", metadata !"_ZNK11ap_int_baseILi3ELb0ELb1EE6to_intEv", metadata !46, i32 1558, metadata !182, i1 false, i1 false, i32 0, i32 0, null, i32 256, i1 false, null, null, i32 0, metadata !58, i32 1558} ; [ DW_TAG_subprogram ]
!182 = metadata !{i32 786453, i32 0, metadata !"", i32 0, i32 0, i64 0, i64 0, i64 0, i32 0, null, metadata !183, i32 0, i32 0} ; [ DW_TAG_subroutine_type ]
!183 = metadata !{metadata !67, metadata !176}
!184 = metadata !{i32 786478, i32 0, metadata !45, metadata !"to_uint", metadata !"to_uint", metadata !"_ZNK11ap_int_baseILi3ELb0ELb1EE7to_uintEv", metadata !46, i32 1559, metadata !185, i1 false, i1 false, i32 0, i32 0, null, i32 256, i1 false, null, null, i32 0, metadata !58, i32 1559} ; [ DW_TAG_subprogram ]
!185 = metadata !{i32 786453, i32 0, metadata !"", i32 0, i32 0, i64 0, i64 0, i64 0, i32 0, null, metadata !186, i32 0, i32 0} ; [ DW_TAG_subroutine_type ]
!186 = metadata !{metadata !106, metadata !176}
!187 = metadata !{i32 786478, i32 0, metadata !45, metadata !"to_long", metadata !"to_long", metadata !"_ZNK11ap_int_baseILi3ELb0ELb1EE7to_longEv", metadata !46, i32 1560, metadata !188, i1 false, i1 false, i32 0, i32 0, null, i32 256, i1 false, null, null, i32 0, metadata !58, i32 1560} ; [ DW_TAG_subprogram ]
!188 = metadata !{i32 786453, i32 0, metadata !"", i32 0, i32 0, i64 0, i64 0, i64 0, i32 0, null, metadata !189, i32 0, i32 0} ; [ DW_TAG_subroutine_type ]
!189 = metadata !{metadata !110, metadata !176}
!190 = metadata !{i32 786478, i32 0, metadata !45, metadata !"to_ulong", metadata !"to_ulong", metadata !"_ZNK11ap_int_baseILi3ELb0ELb1EE8to_ulongEv", metadata !46, i32 1561, metadata !191, i1 false, i1 false, i32 0, i32 0, null, i32 256, i1 false, null, null, i32 0, metadata !58, i32 1561} ; [ DW_TAG_subprogram ]
!191 = metadata !{i32 786453, i32 0, metadata !"", i32 0, i32 0, i64 0, i64 0, i64 0, i32 0, null, metadata !192, i32 0, i32 0} ; [ DW_TAG_subroutine_type ]
!192 = metadata !{metadata !114, metadata !176}
!193 = metadata !{i32 786478, i32 0, metadata !45, metadata !"to_int64", metadata !"to_int64", metadata !"_ZNK11ap_int_baseILi3ELb0ELb1EE8to_int64Ev", metadata !46, i32 1562, metadata !194, i1 false, i1 false, i32 0, i32 0, null, i32 256, i1 false, null, null, i32 0, metadata !58, i32 1562} ; [ DW_TAG_subprogram ]
!194 = metadata !{i32 786453, i32 0, metadata !"", i32 0, i32 0, i64 0, i64 0, i64 0, i32 0, null, metadata !195, i32 0, i32 0} ; [ DW_TAG_subroutine_type ]
!195 = metadata !{metadata !118, metadata !176}
!196 = metadata !{i32 786478, i32 0, metadata !45, metadata !"to_uint64", metadata !"to_uint64", metadata !"_ZNK11ap_int_baseILi3ELb0ELb1EE9to_uint64Ev", metadata !46, i32 1563, metadata !197, i1 false, i1 false, i32 0, i32 0, null, i32 256, i1 false, null, null, i32 0, metadata !58, i32 1563} ; [ DW_TAG_subprogram ]
!197 = metadata !{i32 786453, i32 0, metadata !"", i32 0, i32 0, i64 0, i64 0, i64 0, i32 0, null, metadata !198, i32 0, i32 0} ; [ DW_TAG_subroutine_type ]
!198 = metadata !{metadata !123, metadata !176}
!199 = metadata !{i32 786478, i32 0, metadata !45, metadata !"to_double", metadata !"to_double", metadata !"_ZNK11ap_int_baseILi3ELb0ELb1EE9to_doubleEv", metadata !46, i32 1564, metadata !200, i1 false, i1 false, i32 0, i32 0, null, i32 256, i1 false, null, null, i32 0, metadata !58, i32 1564} ; [ DW_TAG_subprogram ]
!200 = metadata !{i32 786453, i32 0, metadata !"", i32 0, i32 0, i64 0, i64 0, i64 0, i32 0, null, metadata !201, i32 0, i32 0} ; [ DW_TAG_subroutine_type ]
!201 = metadata !{metadata !132, metadata !176}
!202 = metadata !{i32 786478, i32 0, metadata !45, metadata !"length", metadata !"length", metadata !"_ZNK11ap_int_baseILi3ELb0ELb1EE6lengthEv", metadata !46, i32 1577, metadata !182, i1 false, i1 false, i32 0, i32 0, null, i32 256, i1 false, null, null, i32 0, metadata !58, i32 1577} ; [ DW_TAG_subprogram ]
!203 = metadata !{i32 786478, i32 0, metadata !45, metadata !"length", metadata !"length", metadata !"_ZNVK11ap_int_baseILi3ELb0ELb1EE6lengthEv", metadata !46, i32 1578, metadata !204, i1 false, i1 false, i32 0, i32 0, null, i32 256, i1 false, null, null, i32 0, metadata !58, i32 1578} ; [ DW_TAG_subprogram ]
!204 = metadata !{i32 786453, i32 0, metadata !"", i32 0, i32 0, i64 0, i64 0, i64 0, i32 0, null, metadata !205, i32 0, i32 0} ; [ DW_TAG_subroutine_type ]
!205 = metadata !{metadata !67, metadata !206}
!206 = metadata !{i32 786447, i32 0, metadata !"", i32 0, i32 0, i64 64, i64 64, i64 0, i32 64, metadata !207} ; [ DW_TAG_pointer_type ]
!207 = metadata !{i32 786470, null, metadata !"", null, i32 0, i64 0, i64 0, i64 0, i32 0, metadata !146} ; [ DW_TAG_const_type ]
!208 = metadata !{i32 786478, i32 0, metadata !45, metadata !"reverse", metadata !"reverse", metadata !"_ZN11ap_int_baseILi3ELb0ELb1EE7reverseEv", metadata !46, i32 1583, metadata !209, i1 false, i1 false, i32 0, i32 0, null, i32 256, i1 false, null, null, i32 0, metadata !58, i32 1583} ; [ DW_TAG_subprogram ]
!209 = metadata !{i32 786453, i32 0, metadata !"", i32 0, i32 0, i64 0, i64 0, i64 0, i32 0, null, metadata !210, i32 0, i32 0} ; [ DW_TAG_subroutine_type ]
!210 = metadata !{metadata !76, metadata !72}
!211 = metadata !{i32 786478, i32 0, metadata !45, metadata !"iszero", metadata !"iszero", metadata !"_ZNK11ap_int_baseILi3ELb0ELb1EE6iszeroEv", metadata !46, i32 1589, metadata !179, i1 false, i1 false, i32 0, i32 0, null, i32 256, i1 false, null, null, i32 0, metadata !58, i32 1589} ; [ DW_TAG_subprogram ]
!212 = metadata !{i32 786478, i32 0, metadata !45, metadata !"is_zero", metadata !"is_zero", metadata !"_ZNK11ap_int_baseILi3ELb0ELb1EE7is_zeroEv", metadata !46, i32 1594, metadata !179, i1 false, i1 false, i32 0, i32 0, null, i32 256, i1 false, null, null, i32 0, metadata !58, i32 1594} ; [ DW_TAG_subprogram ]
!213 = metadata !{i32 786478, i32 0, metadata !45, metadata !"sign", metadata !"sign", metadata !"_ZNK11ap_int_baseILi3ELb0ELb1EE4signEv", metadata !46, i32 1599, metadata !179, i1 false, i1 false, i32 0, i32 0, null, i32 256, i1 false, null, null, i32 0, metadata !58, i32 1599} ; [ DW_TAG_subprogram ]
!214 = metadata !{i32 786478, i32 0, metadata !45, metadata !"clear", metadata !"clear", metadata !"_ZN11ap_int_baseILi3ELb0ELb1EE5clearEi", metadata !46, i32 1607, metadata !101, i1 false, i1 false, i32 0, i32 0, null, i32 256, i1 false, null, null, i32 0, metadata !58, i32 1607} ; [ DW_TAG_subprogram ]
!215 = metadata !{i32 786478, i32 0, metadata !45, metadata !"invert", metadata !"invert", metadata !"_ZN11ap_int_baseILi3ELb0ELb1EE6invertEi", metadata !46, i32 1613, metadata !101, i1 false, i1 false, i32 0, i32 0, null, i32 256, i1 false, null, null, i32 0, metadata !58, i32 1613} ; [ DW_TAG_subprogram ]
!216 = metadata !{i32 786478, i32 0, metadata !45, metadata !"test", metadata !"test", metadata !"_ZNK11ap_int_baseILi3ELb0ELb1EE4testEi", metadata !46, i32 1621, metadata !217, i1 false, i1 false, i32 0, i32 0, null, i32 256, i1 false, null, null, i32 0, metadata !58, i32 1621} ; [ DW_TAG_subprogram ]
!217 = metadata !{i32 786453, i32 0, metadata !"", i32 0, i32 0, i64 0, i64 0, i64 0, i32 0, null, metadata !218, i32 0, i32 0} ; [ DW_TAG_subroutine_type ]
!218 = metadata !{metadata !38, metadata !176, metadata !67}
!219 = metadata !{i32 786478, i32 0, metadata !45, metadata !"set", metadata !"set", metadata !"_ZN11ap_int_baseILi3ELb0ELb1EE3setEi", metadata !46, i32 1627, metadata !101, i1 false, i1 false, i32 0, i32 0, null, i32 256, i1 false, null, null, i32 0, metadata !58, i32 1627} ; [ DW_TAG_subprogram ]
!220 = metadata !{i32 786478, i32 0, metadata !45, metadata !"set", metadata !"set", metadata !"_ZN11ap_int_baseILi3ELb0ELb1EE3setEib", metadata !46, i32 1633, metadata !221, i1 false, i1 false, i32 0, i32 0, null, i32 256, i1 false, null, null, i32 0, metadata !58, i32 1633} ; [ DW_TAG_subprogram ]
!221 = metadata !{i32 786453, i32 0, metadata !"", i32 0, i32 0, i64 0, i64 0, i64 0, i32 0, null, metadata !222, i32 0, i32 0} ; [ DW_TAG_subroutine_type ]
!222 = metadata !{null, metadata !72, metadata !67, metadata !38}
!223 = metadata !{i32 786478, i32 0, metadata !45, metadata !"lrotate", metadata !"lrotate", metadata !"_ZN11ap_int_baseILi3ELb0ELb1EE7lrotateEi", metadata !46, i32 1640, metadata !101, i1 false, i1 false, i32 0, i32 0, null, i32 256, i1 false, null, null, i32 0, metadata !58, i32 1640} ; [ DW_TAG_subprogram ]
!224 = metadata !{i32 786478, i32 0, metadata !45, metadata !"rrotate", metadata !"rrotate", metadata !"_ZN11ap_int_baseILi3ELb0ELb1EE7rrotateEi", metadata !46, i32 1649, metadata !101, i1 false, i1 false, i32 0, i32 0, null, i32 256, i1 false, null, null, i32 0, metadata !58, i32 1649} ; [ DW_TAG_subprogram ]
!225 = metadata !{i32 786478, i32 0, metadata !45, metadata !"set_bit", metadata !"set_bit", metadata !"_ZN11ap_int_baseILi3ELb0ELb1EE7set_bitEib", metadata !46, i32 1657, metadata !221, i1 false, i1 false, i32 0, i32 0, null, i32 256, i1 false, null, null, i32 0, metadata !58, i32 1657} ; [ DW_TAG_subprogram ]
!226 = metadata !{i32 786478, i32 0, metadata !45, metadata !"get_bit", metadata !"get_bit", metadata !"_ZNK11ap_int_baseILi3ELb0ELb1EE7get_bitEi", metadata !46, i32 1662, metadata !217, i1 false, i1 false, i32 0, i32 0, null, i32 256, i1 false, null, null, i32 0, metadata !58, i32 1662} ; [ DW_TAG_subprogram ]
!227 = metadata !{i32 786478, i32 0, metadata !45, metadata !"b_not", metadata !"b_not", metadata !"_ZN11ap_int_baseILi3ELb0ELb1EE5b_notEv", metadata !46, i32 1667, metadata !70, i1 false, i1 false, i32 0, i32 0, null, i32 256, i1 false, null, null, i32 0, metadata !58, i32 1667} ; [ DW_TAG_subprogram ]
!228 = metadata !{i32 786478, i32 0, metadata !45, metadata !"countLeadingZeros", metadata !"countLeadingZeros", metadata !"_ZN11ap_int_baseILi3ELb0ELb1EE17countLeadingZerosEv", metadata !46, i32 1674, metadata !229, i1 false, i1 false, i32 0, i32 0, null, i32 256, i1 false, null, null, i32 0, metadata !58, i32 1674} ; [ DW_TAG_subprogram ]
!229 = metadata !{i32 786453, i32 0, metadata !"", i32 0, i32 0, i64 0, i64 0, i64 0, i32 0, null, metadata !230, i32 0, i32 0} ; [ DW_TAG_subroutine_type ]
!230 = metadata !{metadata !67, metadata !72}
!231 = metadata !{i32 786478, i32 0, metadata !45, metadata !"operator++", metadata !"operator++", metadata !"_ZN11ap_int_baseILi3ELb0ELb1EEppEv", metadata !46, i32 1731, metadata !209, i1 false, i1 false, i32 0, i32 0, null, i32 256, i1 false, null, null, i32 0, metadata !58, i32 1731} ; [ DW_TAG_subprogram ]
!232 = metadata !{i32 786478, i32 0, metadata !45, metadata !"operator--", metadata !"operator--", metadata !"_ZN11ap_int_baseILi3ELb0ELb1EEmmEv", metadata !46, i32 1735, metadata !209, i1 false, i1 false, i32 0, i32 0, null, i32 256, i1 false, null, null, i32 0, metadata !58, i32 1735} ; [ DW_TAG_subprogram ]
!233 = metadata !{i32 786478, i32 0, metadata !45, metadata !"operator++", metadata !"operator++", metadata !"_ZN11ap_int_baseILi3ELb0ELb1EEppEi", metadata !46, i32 1743, metadata !234, i1 false, i1 false, i32 0, i32 0, null, i32 256, i1 false, null, null, i32 0, metadata !58, i32 1743} ; [ DW_TAG_subprogram ]
!234 = metadata !{i32 786453, i32 0, metadata !"", i32 0, i32 0, i64 0, i64 0, i64 0, i32 0, null, metadata !235, i32 0, i32 0} ; [ DW_TAG_subroutine_type ]
!235 = metadata !{metadata !177, metadata !72, metadata !67}
!236 = metadata !{i32 786478, i32 0, metadata !45, metadata !"operator--", metadata !"operator--", metadata !"_ZN11ap_int_baseILi3ELb0ELb1EEmmEi", metadata !46, i32 1748, metadata !234, i1 false, i1 false, i32 0, i32 0, null, i32 256, i1 false, null, null, i32 0, metadata !58, i32 1748} ; [ DW_TAG_subprogram ]
!237 = metadata !{i32 786478, i32 0, metadata !45, metadata !"operator+", metadata !"operator+", metadata !"_ZNK11ap_int_baseILi3ELb0ELb1EEpsEv", metadata !46, i32 1757, metadata !238, i1 false, i1 false, i32 0, i32 0, null, i32 256, i1 false, null, null, i32 0, metadata !58, i32 1757} ; [ DW_TAG_subprogram ]
!238 = metadata !{i32 786453, i32 0, metadata !"", i32 0, i32 0, i64 0, i64 0, i64 0, i32 0, null, metadata !239, i32 0, i32 0} ; [ DW_TAG_subroutine_type ]
!239 = metadata !{metadata !45, metadata !176}
!240 = metadata !{i32 786478, i32 0, metadata !45, metadata !"operator!", metadata !"operator!", metadata !"_ZNK11ap_int_baseILi3ELb0ELb1EEntEv", metadata !46, i32 1763, metadata !179, i1 false, i1 false, i32 0, i32 0, null, i32 256, i1 false, null, null, i32 0, metadata !58, i32 1763} ; [ DW_TAG_subprogram ]
!241 = metadata !{i32 786478, i32 0, metadata !45, metadata !"operator-", metadata !"operator-", metadata !"_ZNK11ap_int_baseILi3ELb0ELb1EEngEv", metadata !46, i32 1768, metadata !242, i1 false, i1 false, i32 0, i32 0, null, i32 256, i1 false, null, null, i32 0, metadata !58, i32 1768} ; [ DW_TAG_subprogram ]
!242 = metadata !{i32 786453, i32 0, metadata !"", i32 0, i32 0, i64 0, i64 0, i64 0, i32 0, null, metadata !243, i32 0, i32 0} ; [ DW_TAG_subroutine_type ]
!243 = metadata !{metadata !244, metadata !176}
!244 = metadata !{i32 786434, null, metadata !"ap_int_base<4, true, true>", metadata !46, i32 605, i32 0, i32 0, i32 0, i32 4, null, null, i32 0} ; [ DW_TAG_class_type ]
!245 = metadata !{i32 786478, i32 0, metadata !45, metadata !"range", metadata !"range", metadata !"_ZN11ap_int_baseILi3ELb0ELb1EE5rangeEii", metadata !46, i32 1898, metadata !246, i1 false, i1 false, i32 0, i32 0, null, i32 256, i1 false, null, null, i32 0, metadata !58, i32 1898} ; [ DW_TAG_subprogram ]
!246 = metadata !{i32 786453, i32 0, metadata !"", i32 0, i32 0, i64 0, i64 0, i64 0, i32 0, null, metadata !247, i32 0, i32 0} ; [ DW_TAG_subroutine_type ]
!247 = metadata !{metadata !248, metadata !72, metadata !67, metadata !67}
!248 = metadata !{i32 786434, null, metadata !"ap_range_ref<3, false>", metadata !46, i32 878, i32 0, i32 0, i32 0, i32 4, null, null, i32 0} ; [ DW_TAG_class_type ]
!249 = metadata !{i32 786478, i32 0, metadata !45, metadata !"operator()", metadata !"operator()", metadata !"_ZN11ap_int_baseILi3ELb0ELb1EEclEii", metadata !46, i32 1904, metadata !246, i1 false, i1 false, i32 0, i32 0, null, i32 256, i1 false, null, null, i32 0, metadata !58, i32 1904} ; [ DW_TAG_subprogram ]
!250 = metadata !{i32 786478, i32 0, metadata !45, metadata !"range", metadata !"range", metadata !"_ZNK11ap_int_baseILi3ELb0ELb1EE5rangeEii", metadata !46, i32 1910, metadata !251, i1 false, i1 false, i32 0, i32 0, null, i32 256, i1 false, null, null, i32 0, metadata !58, i32 1910} ; [ DW_TAG_subprogram ]
!251 = metadata !{i32 786453, i32 0, metadata !"", i32 0, i32 0, i64 0, i64 0, i64 0, i32 0, null, metadata !252, i32 0, i32 0} ; [ DW_TAG_subroutine_type ]
!252 = metadata !{metadata !248, metadata !176, metadata !67, metadata !67}
!253 = metadata !{i32 786478, i32 0, metadata !45, metadata !"operator()", metadata !"operator()", metadata !"_ZNK11ap_int_baseILi3ELb0ELb1EEclEii", metadata !46, i32 1916, metadata !251, i1 false, i1 false, i32 0, i32 0, null, i32 256, i1 false, null, null, i32 0, metadata !58, i32 1916} ; [ DW_TAG_subprogram ]
!254 = metadata !{i32 786478, i32 0, metadata !45, metadata !"operator[]", metadata !"operator[]", metadata !"_ZN11ap_int_baseILi3ELb0ELb1EEixEi", metadata !46, i32 1935, metadata !255, i1 false, i1 false, i32 0, i32 0, null, i32 256, i1 false, null, null, i32 0, metadata !58, i32 1935} ; [ DW_TAG_subprogram ]
!255 = metadata !{i32 786453, i32 0, metadata !"", i32 0, i32 0, i64 0, i64 0, i64 0, i32 0, null, metadata !256, i32 0, i32 0} ; [ DW_TAG_subroutine_type ]
!256 = metadata !{metadata !257, metadata !72, metadata !67}
!257 = metadata !{i32 786434, null, metadata !"ap_bit_ref<3, false>", metadata !46, i32 1124, i32 0, i32 0, i32 0, i32 4, null, null, i32 0} ; [ DW_TAG_class_type ]
!258 = metadata !{i32 786478, i32 0, metadata !45, metadata !"operator[]", metadata !"operator[]", metadata !"_ZNK11ap_int_baseILi3ELb0ELb1EEixEi", metadata !46, i32 1949, metadata !217, i1 false, i1 false, i32 0, i32 0, null, i32 256, i1 false, null, null, i32 0, metadata !58, i32 1949} ; [ DW_TAG_subprogram ]
!259 = metadata !{i32 786478, i32 0, metadata !45, metadata !"bit", metadata !"bit", metadata !"_ZN11ap_int_baseILi3ELb0ELb1EE3bitEi", metadata !46, i32 1963, metadata !255, i1 false, i1 false, i32 0, i32 0, null, i32 256, i1 false, null, null, i32 0, metadata !58, i32 1963} ; [ DW_TAG_subprogram ]
!260 = metadata !{i32 786478, i32 0, metadata !45, metadata !"bit", metadata !"bit", metadata !"_ZNK11ap_int_baseILi3ELb0ELb1EE3bitEi", metadata !46, i32 1977, metadata !217, i1 false, i1 false, i32 0, i32 0, null, i32 256, i1 false, null, null, i32 0, metadata !58, i32 1977} ; [ DW_TAG_subprogram ]
!261 = metadata !{i32 786478, i32 0, metadata !45, metadata !"and_reduce", metadata !"and_reduce", metadata !"_ZN11ap_int_baseILi3ELb0ELb1EE10and_reduceEv", metadata !46, i32 2157, metadata !262, i1 false, i1 false, i32 0, i32 0, null, i32 256, i1 false, null, null, i32 0, metadata !58, i32 2157} ; [ DW_TAG_subprogram ]
!262 = metadata !{i32 786453, i32 0, metadata !"", i32 0, i32 0, i64 0, i64 0, i64 0, i32 0, null, metadata !263, i32 0, i32 0} ; [ DW_TAG_subroutine_type ]
!263 = metadata !{metadata !38, metadata !72}
!264 = metadata !{i32 786478, i32 0, metadata !45, metadata !"nand_reduce", metadata !"nand_reduce", metadata !"_ZN11ap_int_baseILi3ELb0ELb1EE11nand_reduceEv", metadata !46, i32 2160, metadata !262, i1 false, i1 false, i32 0, i32 0, null, i32 256, i1 false, null, null, i32 0, metadata !58, i32 2160} ; [ DW_TAG_subprogram ]
!265 = metadata !{i32 786478, i32 0, metadata !45, metadata !"or_reduce", metadata !"or_reduce", metadata !"_ZN11ap_int_baseILi3ELb0ELb1EE9or_reduceEv", metadata !46, i32 2163, metadata !262, i1 false, i1 false, i32 0, i32 0, null, i32 256, i1 false, null, null, i32 0, metadata !58, i32 2163} ; [ DW_TAG_subprogram ]
!266 = metadata !{i32 786478, i32 0, metadata !45, metadata !"nor_reduce", metadata !"nor_reduce", metadata !"_ZN11ap_int_baseILi3ELb0ELb1EE10nor_reduceEv", metadata !46, i32 2166, metadata !262, i1 false, i1 false, i32 0, i32 0, null, i32 256, i1 false, null, null, i32 0, metadata !58, i32 2166} ; [ DW_TAG_subprogram ]
!267 = metadata !{i32 786478, i32 0, metadata !45, metadata !"xor_reduce", metadata !"xor_reduce", metadata !"_ZN11ap_int_baseILi3ELb0ELb1EE10xor_reduceEv", metadata !46, i32 2169, metadata !262, i1 false, i1 false, i32 0, i32 0, null, i32 256, i1 false, null, null, i32 0, metadata !58, i32 2169} ; [ DW_TAG_subprogram ]
!268 = metadata !{i32 786478, i32 0, metadata !45, metadata !"xnor_reduce", metadata !"xnor_reduce", metadata !"_ZN11ap_int_baseILi3ELb0ELb1EE11xnor_reduceEv", metadata !46, i32 2172, metadata !262, i1 false, i1 false, i32 0, i32 0, null, i32 256, i1 false, null, null, i32 0, metadata !58, i32 2172} ; [ DW_TAG_subprogram ]
!269 = metadata !{i32 786478, i32 0, metadata !45, metadata !"and_reduce", metadata !"and_reduce", metadata !"_ZNK11ap_int_baseILi3ELb0ELb1EE10and_reduceEv", metadata !46, i32 2176, metadata !179, i1 false, i1 false, i32 0, i32 0, null, i32 256, i1 false, null, null, i32 0, metadata !58, i32 2176} ; [ DW_TAG_subprogram ]
!270 = metadata !{i32 786478, i32 0, metadata !45, metadata !"nand_reduce", metadata !"nand_reduce", metadata !"_ZNK11ap_int_baseILi3ELb0ELb1EE11nand_reduceEv", metadata !46, i32 2179, metadata !179, i1 false, i1 false, i32 0, i32 0, null, i32 256, i1 false, null, null, i32 0, metadata !58, i32 2179} ; [ DW_TAG_subprogram ]
!271 = metadata !{i32 786478, i32 0, metadata !45, metadata !"or_reduce", metadata !"or_reduce", metadata !"_ZNK11ap_int_baseILi3ELb0ELb1EE9or_reduceEv", metadata !46, i32 2182, metadata !179, i1 false, i1 false, i32 0, i32 0, null, i32 256, i1 false, null, null, i32 0, metadata !58, i32 2182} ; [ DW_TAG_subprogram ]
!272 = metadata !{i32 786478, i32 0, metadata !45, metadata !"nor_reduce", metadata !"nor_reduce", metadata !"_ZNK11ap_int_baseILi3ELb0ELb1EE10nor_reduceEv", metadata !46, i32 2185, metadata !179, i1 false, i1 false, i32 0, i32 0, null, i32 256, i1 false, null, null, i32 0, metadata !58, i32 2185} ; [ DW_TAG_subprogram ]
!273 = metadata !{i32 786478, i32 0, metadata !45, metadata !"xor_reduce", metadata !"xor_reduce", metadata !"_ZNK11ap_int_baseILi3ELb0ELb1EE10xor_reduceEv", metadata !46, i32 2188, metadata !179, i1 false, i1 false, i32 0, i32 0, null, i32 256, i1 false, null, null, i32 0, metadata !58, i32 2188} ; [ DW_TAG_subprogram ]
!274 = metadata !{i32 786478, i32 0, metadata !45, metadata !"xnor_reduce", metadata !"xnor_reduce", metadata !"_ZNK11ap_int_baseILi3ELb0ELb1EE11xnor_reduceEv", metadata !46, i32 2191, metadata !179, i1 false, i1 false, i32 0, i32 0, null, i32 256, i1 false, null, null, i32 0, metadata !58, i32 2191} ; [ DW_TAG_subprogram ]
!275 = metadata !{i32 786478, i32 0, metadata !45, metadata !"to_string", metadata !"to_string", metadata !"_ZNK11ap_int_baseILi3ELb0ELb1EE9to_stringEPci8BaseModeb", metadata !46, i32 2198, metadata !276, i1 false, i1 false, i32 0, i32 0, null, i32 256, i1 false, null, null, i32 0, metadata !58, i32 2198} ; [ DW_TAG_subprogram ]
!276 = metadata !{i32 786453, i32 0, metadata !"", i32 0, i32 0, i64 0, i64 0, i64 0, i32 0, null, metadata !277, i32 0, i32 0} ; [ DW_TAG_subroutine_type ]
!277 = metadata !{null, metadata !176, metadata !278, metadata !67, metadata !279, metadata !38}
!278 = metadata !{i32 786447, null, metadata !"", null, i32 0, i64 64, i64 64, i64 0, i32 0, metadata !138} ; [ DW_TAG_pointer_type ]
!279 = metadata !{i32 786436, null, metadata !"BaseMode", metadata !46, i32 557, i64 5, i64 8, i32 0, i32 0, null, metadata !280, i32 0, i32 0} ; [ DW_TAG_enumeration_type ]
!280 = metadata !{metadata !281, metadata !282, metadata !283, metadata !284}
!281 = metadata !{i32 786472, metadata !"SC_BIN", i64 2} ; [ DW_TAG_enumerator ]
!282 = metadata !{i32 786472, metadata !"SC_OCT", i64 8} ; [ DW_TAG_enumerator ]
!283 = metadata !{i32 786472, metadata !"SC_DEC", i64 10} ; [ DW_TAG_enumerator ]
!284 = metadata !{i32 786472, metadata !"SC_HEX", i64 16} ; [ DW_TAG_enumerator ]
!285 = metadata !{i32 786478, i32 0, metadata !45, metadata !"to_string", metadata !"to_string", metadata !"_ZNK11ap_int_baseILi3ELb0ELb1EE9to_stringE8BaseModeb", metadata !46, i32 2225, metadata !286, i1 false, i1 false, i32 0, i32 0, null, i32 256, i1 false, null, null, i32 0, metadata !58, i32 2225} ; [ DW_TAG_subprogram ]
!286 = metadata !{i32 786453, i32 0, metadata !"", i32 0, i32 0, i64 0, i64 0, i64 0, i32 0, null, metadata !287, i32 0, i32 0} ; [ DW_TAG_subroutine_type ]
!287 = metadata !{metadata !278, metadata !176, metadata !279, metadata !38}
!288 = metadata !{i32 786478, i32 0, metadata !45, metadata !"to_string", metadata !"to_string", metadata !"_ZNK11ap_int_baseILi3ELb0ELb1EE9to_stringEab", metadata !46, i32 2229, metadata !289, i1 false, i1 false, i32 0, i32 0, null, i32 256, i1 false, null, null, i32 0, metadata !58, i32 2229} ; [ DW_TAG_subprogram ]
!289 = metadata !{i32 786453, i32 0, metadata !"", i32 0, i32 0, i64 0, i64 0, i64 0, i32 0, null, metadata !290, i32 0, i32 0} ; [ DW_TAG_subroutine_type ]
!290 = metadata !{metadata !278, metadata !176, metadata !87, metadata !38}
!291 = metadata !{i32 786478, i32 0, metadata !45, metadata !"ap_int_base", metadata !"ap_int_base", metadata !"", metadata !46, i32 1302, metadata !292, i1 false, i1 false, i32 0, i32 0, null, i32 320, i1 false, null, null, i32 0, metadata !58, i32 1302} ; [ DW_TAG_subprogram ]
!292 = metadata !{i32 786453, i32 0, metadata !"", i32 0, i32 0, i64 0, i64 0, i64 0, i32 0, null, metadata !293, i32 0, i32 0} ; [ DW_TAG_subroutine_type ]
!293 = metadata !{null, metadata !72, metadata !294}
!294 = metadata !{i32 786448, null, null, null, i32 0, i64 0, i64 0, i64 0, i32 0, metadata !177} ; [ DW_TAG_reference_type ]
!295 = metadata !{metadata !296, metadata !68}
!296 = metadata !{i32 786480, null, metadata !"_AP_W", metadata !67, i64 3, null, i32 0, i32 0} ; [ DW_TAG_template_value_parameter ]
!297 = metadata !{i32 786478, i32 0, metadata !41, metadata !"ap_uint", metadata !"ap_uint", metadata !"", metadata !42, i32 137, metadata !298, i1 false, i1 false, i32 0, i32 0, null, i32 256, i1 false, null, null, i32 0, metadata !58, i32 137} ; [ DW_TAG_subprogram ]
!298 = metadata !{i32 786453, i32 0, metadata !"", i32 0, i32 0, i64 0, i64 0, i64 0, i32 0, null, metadata !299, i32 0, i32 0} ; [ DW_TAG_subroutine_type ]
!299 = metadata !{null, metadata !300}
!300 = metadata !{i32 786447, i32 0, metadata !"", i32 0, i32 0, i64 64, i64 64, i64 0, i32 64, metadata !41} ; [ DW_TAG_pointer_type ]
!301 = metadata !{i32 786478, i32 0, metadata !41, metadata !"ap_uint<3>", metadata !"ap_uint<3>", metadata !"", metadata !42, i32 139, metadata !302, i1 false, i1 false, i32 0, i32 0, null, i32 256, i1 false, null, metadata !305, i32 0, metadata !58, i32 139} ; [ DW_TAG_subprogram ]
!302 = metadata !{i32 786453, i32 0, metadata !"", i32 0, i32 0, i64 0, i64 0, i64 0, i32 0, null, metadata !303, i32 0, i32 0} ; [ DW_TAG_subroutine_type ]
!303 = metadata !{null, metadata !300, metadata !304}
!304 = metadata !{i32 786448, null, null, null, i32 0, i64 0, i64 0, i64 0, i32 0, metadata !41} ; [ DW_TAG_reference_type ]
!305 = metadata !{metadata !78}
!306 = metadata !{i32 786478, i32 0, metadata !41, metadata !"ap_uint<3>", metadata !"ap_uint<3>", metadata !"", metadata !42, i32 145, metadata !302, i1 false, i1 false, i32 0, i32 0, null, i32 256, i1 false, null, metadata !305, i32 0, metadata !58, i32 145} ; [ DW_TAG_subprogram ]
!307 = metadata !{i32 786478, i32 0, metadata !41, metadata !"ap_uint<3, false>", metadata !"ap_uint<3, false>", metadata !"", metadata !42, i32 180, metadata !308, i1 false, i1 false, i32 0, i32 0, null, i32 256, i1 false, null, metadata !77, i32 0, metadata !58, i32 180} ; [ DW_TAG_subprogram ]
!308 = metadata !{i32 786453, i32 0, metadata !"", i32 0, i32 0, i64 0, i64 0, i64 0, i32 0, null, metadata !309, i32 0, i32 0} ; [ DW_TAG_subroutine_type ]
!309 = metadata !{null, metadata !300, metadata !76}
!310 = metadata !{i32 786478, i32 0, metadata !41, metadata !"ap_uint", metadata !"ap_uint", metadata !"", metadata !42, i32 199, metadata !311, i1 false, i1 false, i32 0, i32 0, null, i32 256, i1 false, null, null, i32 0, metadata !58, i32 199} ; [ DW_TAG_subprogram ]
!311 = metadata !{i32 786453, i32 0, metadata !"", i32 0, i32 0, i64 0, i64 0, i64 0, i32 0, null, metadata !312, i32 0, i32 0} ; [ DW_TAG_subroutine_type ]
!312 = metadata !{null, metadata !300, metadata !38}
!313 = metadata !{i32 786478, i32 0, metadata !41, metadata !"ap_uint", metadata !"ap_uint", metadata !"", metadata !42, i32 200, metadata !314, i1 false, i1 false, i32 0, i32 0, null, i32 256, i1 false, null, null, i32 0, metadata !58, i32 200} ; [ DW_TAG_subprogram ]
!314 = metadata !{i32 786453, i32 0, metadata !"", i32 0, i32 0, i64 0, i64 0, i64 0, i32 0, null, metadata !315, i32 0, i32 0} ; [ DW_TAG_subroutine_type ]
!315 = metadata !{null, metadata !300, metadata !87}
!316 = metadata !{i32 786478, i32 0, metadata !41, metadata !"ap_uint", metadata !"ap_uint", metadata !"", metadata !42, i32 201, metadata !317, i1 false, i1 false, i32 0, i32 0, null, i32 256, i1 false, null, null, i32 0, metadata !58, i32 201} ; [ DW_TAG_subprogram ]
!317 = metadata !{i32 786453, i32 0, metadata !"", i32 0, i32 0, i64 0, i64 0, i64 0, i32 0, null, metadata !318, i32 0, i32 0} ; [ DW_TAG_subroutine_type ]
!318 = metadata !{null, metadata !300, metadata !91}
!319 = metadata !{i32 786478, i32 0, metadata !41, metadata !"ap_uint", metadata !"ap_uint", metadata !"", metadata !42, i32 202, metadata !320, i1 false, i1 false, i32 0, i32 0, null, i32 256, i1 false, null, null, i32 0, metadata !58, i32 202} ; [ DW_TAG_subprogram ]
!320 = metadata !{i32 786453, i32 0, metadata !"", i32 0, i32 0, i64 0, i64 0, i64 0, i32 0, null, metadata !321, i32 0, i32 0} ; [ DW_TAG_subroutine_type ]
!321 = metadata !{null, metadata !300, metadata !95}
!322 = metadata !{i32 786478, i32 0, metadata !41, metadata !"ap_uint", metadata !"ap_uint", metadata !"", metadata !42, i32 203, metadata !323, i1 false, i1 false, i32 0, i32 0, null, i32 256, i1 false, null, null, i32 0, metadata !58, i32 203} ; [ DW_TAG_subprogram ]
!323 = metadata !{i32 786453, i32 0, metadata !"", i32 0, i32 0, i64 0, i64 0, i64 0, i32 0, null, metadata !324, i32 0, i32 0} ; [ DW_TAG_subroutine_type ]
!324 = metadata !{null, metadata !300, metadata !99}
!325 = metadata !{i32 786478, i32 0, metadata !41, metadata !"ap_uint", metadata !"ap_uint", metadata !"", metadata !42, i32 204, metadata !326, i1 false, i1 false, i32 0, i32 0, null, i32 256, i1 false, null, null, i32 0, metadata !58, i32 204} ; [ DW_TAG_subprogram ]
!326 = metadata !{i32 786453, i32 0, metadata !"", i32 0, i32 0, i64 0, i64 0, i64 0, i32 0, null, metadata !327, i32 0, i32 0} ; [ DW_TAG_subroutine_type ]
!327 = metadata !{null, metadata !300, metadata !67}
!328 = metadata !{i32 786478, i32 0, metadata !41, metadata !"ap_uint", metadata !"ap_uint", metadata !"", metadata !42, i32 205, metadata !329, i1 false, i1 false, i32 0, i32 0, null, i32 256, i1 false, null, null, i32 0, metadata !58, i32 205} ; [ DW_TAG_subprogram ]
!329 = metadata !{i32 786453, i32 0, metadata !"", i32 0, i32 0, i64 0, i64 0, i64 0, i32 0, null, metadata !330, i32 0, i32 0} ; [ DW_TAG_subroutine_type ]
!330 = metadata !{null, metadata !300, metadata !106}
!331 = metadata !{i32 786478, i32 0, metadata !41, metadata !"ap_uint", metadata !"ap_uint", metadata !"", metadata !42, i32 206, metadata !332, i1 false, i1 false, i32 0, i32 0, null, i32 256, i1 false, null, null, i32 0, metadata !58, i32 206} ; [ DW_TAG_subprogram ]
!332 = metadata !{i32 786453, i32 0, metadata !"", i32 0, i32 0, i64 0, i64 0, i64 0, i32 0, null, metadata !333, i32 0, i32 0} ; [ DW_TAG_subroutine_type ]
!333 = metadata !{null, metadata !300, metadata !110}
!334 = metadata !{i32 786478, i32 0, metadata !41, metadata !"ap_uint", metadata !"ap_uint", metadata !"", metadata !42, i32 207, metadata !335, i1 false, i1 false, i32 0, i32 0, null, i32 256, i1 false, null, null, i32 0, metadata !58, i32 207} ; [ DW_TAG_subprogram ]
!335 = metadata !{i32 786453, i32 0, metadata !"", i32 0, i32 0, i64 0, i64 0, i64 0, i32 0, null, metadata !336, i32 0, i32 0} ; [ DW_TAG_subroutine_type ]
!336 = metadata !{null, metadata !300, metadata !114}
!337 = metadata !{i32 786478, i32 0, metadata !41, metadata !"ap_uint", metadata !"ap_uint", metadata !"", metadata !42, i32 208, metadata !338, i1 false, i1 false, i32 0, i32 0, null, i32 256, i1 false, null, null, i32 0, metadata !58, i32 208} ; [ DW_TAG_subprogram ]
!338 = metadata !{i32 786453, i32 0, metadata !"", i32 0, i32 0, i64 0, i64 0, i64 0, i32 0, null, metadata !339, i32 0, i32 0} ; [ DW_TAG_subroutine_type ]
!339 = metadata !{null, metadata !300, metadata !124}
!340 = metadata !{i32 786478, i32 0, metadata !41, metadata !"ap_uint", metadata !"ap_uint", metadata !"", metadata !42, i32 209, metadata !341, i1 false, i1 false, i32 0, i32 0, null, i32 256, i1 false, null, null, i32 0, metadata !58, i32 209} ; [ DW_TAG_subprogram ]
!341 = metadata !{i32 786453, i32 0, metadata !"", i32 0, i32 0, i64 0, i64 0, i64 0, i32 0, null, metadata !342, i32 0, i32 0} ; [ DW_TAG_subroutine_type ]
!342 = metadata !{null, metadata !300, metadata !119}
!343 = metadata !{i32 786478, i32 0, metadata !41, metadata !"ap_uint", metadata !"ap_uint", metadata !"", metadata !42, i32 210, metadata !344, i1 false, i1 false, i32 0, i32 0, null, i32 256, i1 false, null, null, i32 0, metadata !58, i32 210} ; [ DW_TAG_subprogram ]
!344 = metadata !{i32 786453, i32 0, metadata !"", i32 0, i32 0, i64 0, i64 0, i64 0, i32 0, null, metadata !345, i32 0, i32 0} ; [ DW_TAG_subroutine_type ]
!345 = metadata !{null, metadata !300, metadata !128}
!346 = metadata !{i32 786478, i32 0, metadata !41, metadata !"ap_uint", metadata !"ap_uint", metadata !"", metadata !42, i32 211, metadata !347, i1 false, i1 false, i32 0, i32 0, null, i32 256, i1 false, null, null, i32 0, metadata !58, i32 211} ; [ DW_TAG_subprogram ]
!347 = metadata !{i32 786453, i32 0, metadata !"", i32 0, i32 0, i64 0, i64 0, i64 0, i32 0, null, metadata !348, i32 0, i32 0} ; [ DW_TAG_subroutine_type ]
!348 = metadata !{null, metadata !300, metadata !132}
!349 = metadata !{i32 786478, i32 0, metadata !41, metadata !"ap_uint", metadata !"ap_uint", metadata !"", metadata !42, i32 213, metadata !350, i1 false, i1 false, i32 0, i32 0, null, i32 256, i1 false, null, null, i32 0, metadata !58, i32 213} ; [ DW_TAG_subprogram ]
!350 = metadata !{i32 786453, i32 0, metadata !"", i32 0, i32 0, i64 0, i64 0, i64 0, i32 0, null, metadata !351, i32 0, i32 0} ; [ DW_TAG_subroutine_type ]
!351 = metadata !{null, metadata !300, metadata !136}
!352 = metadata !{i32 786478, i32 0, metadata !41, metadata !"ap_uint", metadata !"ap_uint", metadata !"", metadata !42, i32 214, metadata !353, i1 false, i1 false, i32 0, i32 0, null, i32 256, i1 false, null, null, i32 0, metadata !58, i32 214} ; [ DW_TAG_subprogram ]
!353 = metadata !{i32 786453, i32 0, metadata !"", i32 0, i32 0, i64 0, i64 0, i64 0, i32 0, null, metadata !354, i32 0, i32 0} ; [ DW_TAG_subroutine_type ]
!354 = metadata !{null, metadata !300, metadata !136, metadata !87}
!355 = metadata !{i32 786478, i32 0, metadata !41, metadata !"operator=", metadata !"operator=", metadata !"_ZNV7ap_uintILi3EEaSERKS0_", metadata !42, i32 217, metadata !356, i1 false, i1 false, i32 0, i32 0, null, i32 256, i1 false, null, null, i32 0, metadata !58, i32 217} ; [ DW_TAG_subprogram ]
!356 = metadata !{i32 786453, i32 0, metadata !"", i32 0, i32 0, i64 0, i64 0, i64 0, i32 0, null, metadata !357, i32 0, i32 0} ; [ DW_TAG_subroutine_type ]
!357 = metadata !{null, metadata !358, metadata !304}
!358 = metadata !{i32 786447, i32 0, metadata !"", i32 0, i32 0, i64 64, i64 64, i64 0, i32 64, metadata !359} ; [ DW_TAG_pointer_type ]
!359 = metadata !{i32 786485, null, metadata !"", null, i32 0, i64 0, i64 0, i64 0, i32 0, metadata !41} ; [ DW_TAG_volatile_type ]
!360 = metadata !{i32 786478, i32 0, metadata !41, metadata !"operator=", metadata !"operator=", metadata !"_ZNV7ap_uintILi3EEaSERVKS0_", metadata !42, i32 221, metadata !356, i1 false, i1 false, i32 0, i32 0, null, i32 256, i1 false, null, null, i32 0, metadata !58, i32 221} ; [ DW_TAG_subprogram ]
!361 = metadata !{i32 786478, i32 0, metadata !41, metadata !"operator=", metadata !"operator=", metadata !"_ZN7ap_uintILi3EEaSERVKS0_", metadata !42, i32 225, metadata !362, i1 false, i1 false, i32 0, i32 0, null, i32 256, i1 false, null, null, i32 0, metadata !58, i32 225} ; [ DW_TAG_subprogram ]
!362 = metadata !{i32 786453, i32 0, metadata !"", i32 0, i32 0, i64 0, i64 0, i64 0, i32 0, null, metadata !363, i32 0, i32 0} ; [ DW_TAG_subroutine_type ]
!363 = metadata !{metadata !304, metadata !300, metadata !304}
!364 = metadata !{i32 786478, i32 0, metadata !41, metadata !"operator=", metadata !"operator=", metadata !"_ZN7ap_uintILi3EEaSERKS0_", metadata !42, i32 230, metadata !362, i1 false, i1 false, i32 0, i32 0, null, i32 256, i1 false, null, null, i32 0, metadata !58, i32 230} ; [ DW_TAG_subprogram ]
!365 = metadata !{i32 786478, i32 0, metadata !41, metadata !"ap_uint", metadata !"ap_uint", metadata !"", metadata !42, i32 134, metadata !366, i1 false, i1 false, i32 0, i32 0, null, i32 320, i1 false, null, null, i32 0, metadata !58, i32 134} ; [ DW_TAG_subprogram ]
!366 = metadata !{i32 786453, i32 0, metadata !"", i32 0, i32 0, i64 0, i64 0, i64 0, i32 0, null, metadata !367, i32 0, i32 0} ; [ DW_TAG_subroutine_type ]
!367 = metadata !{null, metadata !300, metadata !368}
!368 = metadata !{i32 786448, null, null, null, i32 0, i64 0, i64 0, i64 0, i32 0, metadata !369} ; [ DW_TAG_reference_type ]
!369 = metadata !{i32 786470, null, metadata !"", null, i32 0, i64 0, i64 0, i64 0, i32 0, metadata !41} ; [ DW_TAG_const_type ]
!370 = metadata !{i32 786478, i32 0, metadata !41, metadata !"~ap_uint", metadata !"~ap_uint", metadata !"", metadata !42, i32 134, metadata !298, i1 false, i1 false, i32 0, i32 0, null, i32 320, i1 false, null, null, i32 0, metadata !58, i32 134} ; [ DW_TAG_subprogram ]
!371 = metadata !{i32 786474, metadata !41, null, metadata !42, i32 0, i64 0, i64 0, i64 0, i32 0, metadata !372} ; [ DW_TAG_friend ]
!372 = metadata !{i32 786434, null, metadata !"aesl_keep_name_class", metadata !35, i32 4, i64 8, i64 8, i32 0, i32 0, null, metadata !174, i32 0, null, null} ; [ DW_TAG_class_type ]
!373 = metadata !{metadata !296}
!374 = metadata !{i32 3, i32 104, metadata !34, null}
!375 = metadata !{i32 786689, metadata !34, metadata !"ap_done_in", metadata !35, i32 67108867, metadata !38, i32 0, i32 0} ; [ DW_TAG_arg_variable ]
!376 = metadata !{i32 3, i32 87, metadata !34, null}
!377 = metadata !{i32 786689, metadata !34, metadata !"ap_ready_in", metadata !35, i32 50331651, metadata !38, i32 0, i32 0} ; [ DW_TAG_arg_variable ]
!378 = metadata !{i32 3, i32 69, metadata !34, null}
!379 = metadata !{i32 786689, metadata !34, metadata !"ap_start_enable", metadata !35, i32 16777219, metadata !38, i32 0, i32 0} ; [ DW_TAG_arg_variable ]
!380 = metadata !{i32 3, i32 26, metadata !34, null}
!381 = metadata !{i32 786689, metadata !34, metadata !"ap_start_out", metadata !35, i32 33554435, metadata !39, i32 0, i32 0} ; [ DW_TAG_arg_variable ]
!382 = metadata !{i32 3, i32 50, metadata !34, null}
!383 = metadata !{i32 790531, metadata !384, metadata !"ap_status_out.V", null, i32 3, metadata !385, i32 0, i32 0} ; [ DW_TAG_arg_variable_field ]
!384 = metadata !{i32 786689, metadata !34, metadata !"ap_status_out", metadata !35, i32 100663299, metadata !40, i32 0, i32 0} ; [ DW_TAG_arg_variable ]
!385 = metadata !{i32 786447, null, metadata !"", null, i32 0, i64 64, i64 64, i64 0, i32 0, metadata !386} ; [ DW_TAG_pointer_type ]
!386 = metadata !{i32 786438, null, metadata !"ap_uint<3>", metadata !42, i32 134, i64 3, i64 8, i32 0, i32 0, null, metadata !387, i32 0, null, metadata !373} ; [ DW_TAG_class_field_type ]
!387 = metadata !{metadata !388}
!388 = metadata !{i32 786438, null, metadata !"ap_int_base<3, false, true>", metadata !46, i32 1302, i64 3, i64 8, i32 0, i32 0, null, metadata !389, i32 0, null, metadata !295} ; [ DW_TAG_class_field_type ]
!389 = metadata !{metadata !390}
!390 = metadata !{i32 786438, null, metadata !"ssdm_int<3 + 1024 * 0, false>", metadata !50, i32 5, i64 3, i64 8, i32 0, i32 0, null, metadata !391, i32 0, null, metadata !65} ; [ DW_TAG_class_field_type ]
!391 = metadata !{metadata !52}
!392 = metadata !{i32 3, i32 129, metadata !34, null}
!393 = metadata !{i32 790531, metadata !394, metadata !"ap_status_out.V", null, i32 9, metadata !385, i32 0, i32 0} ; [ DW_TAG_arg_variable_field ]
!394 = metadata !{i32 786689, metadata !395, metadata !"ap_status_out", metadata !35, i32 16777225, metadata !40, i32 0, i32 0} ; [ DW_TAG_arg_variable ]
!395 = metadata !{i32 786478, i32 0, metadata !372, metadata !"aesl_keep_name_ap_uint_ap_status_out", metadata !"aesl_keep_name_ap_uint_ap_status_out", metadata !"_ZN20aesl_keep_name_class42aesl_keep_name_class_ap_uint_ap_status_outILi3EE36aesl_keep_name_ap_uint_ap_status_outEP7ap_uintILi3EE", metadata !35, i32 9, metadata !396, i1 false, i1 true, i32 0, i32 0, null, i32 256, i1 false, null, null, metadata !398, metadata !58, i32 9} ; [ DW_TAG_subprogram ]
!396 = metadata !{i32 786453, i32 0, metadata !"", i32 0, i32 0, i64 0, i64 0, i64 0, i32 0, null, metadata !397, i32 0, i32 0} ; [ DW_TAG_subroutine_type ]
!397 = metadata !{null, metadata !40}
!398 = metadata !{i32 786478, i32 0, metadata !399, metadata !"aesl_keep_name_ap_uint_ap_status_out", metadata !"aesl_keep_name_ap_uint_ap_status_out", metadata !"_ZN20aesl_keep_name_class42aesl_keep_name_class_ap_uint_ap_status_outILi3EE36aesl_keep_name_ap_uint_ap_status_outEP7ap_uintILi3EE", metadata !35, i32 9, metadata !396, i1 false, i1 false, i32 0, i32 0, null, i32 256, i1 false, null, null, i32 0, metadata !58, i32 9} ; [ DW_TAG_subprogram ]
!399 = metadata !{i32 786434, metadata !372, metadata !"aesl_keep_name_class_ap_uint_ap_status_out<3>", metadata !35, i32 7, i64 8, i64 8, i32 0, i32 0, null, metadata !400, i32 0, null, metadata !373} ; [ DW_TAG_class_type ]
!400 = metadata !{metadata !398}
!401 = metadata !{i32 9, i32 102, metadata !395, metadata !402}
!402 = metadata !{i32 3, i32 144, metadata !403, null}
!403 = metadata !{i32 786443, metadata !34, i32 3, i32 143, metadata !35, i32 0} ; [ DW_TAG_lexical_block ]
!404 = metadata !{i32 4, i32 1, metadata !403, null}
!405 = metadata !{i32 5, i32 1, metadata !403, null}
!406 = metadata !{i32 6, i32 1, metadata !403, null}
!407 = metadata !{i32 7, i32 1, metadata !403, null}
!408 = metadata !{i32 8, i32 1, metadata !403, null}
!409 = metadata !{i32 9, i32 1, metadata !403, null}
!410 = metadata !{i32 10, i32 1, metadata !403, null}
!411 = metadata !{i32 11, i32 1, metadata !403, null}
!412 = metadata !{i32 15, i32 2, metadata !403, null}
!413 = metadata !{i32 790529, metadata !414, metadata !"current_status.V", null, i32 14, metadata !386, i32 0, i32 0} ; [ DW_TAG_auto_variable_field ]
!414 = metadata !{i32 786688, metadata !403, metadata !"current_status", metadata !35, i32 14, metadata !41, i32 0, i32 0} ; [ DW_TAG_auto_variable ]
!415 = metadata !{i32 1715, i32 147, metadata !416, metadata !869}
!416 = metadata !{i32 786443, metadata !417, i32 1715, i32 143, metadata !46, i32 8} ; [ DW_TAG_lexical_block ]
!417 = metadata !{i32 786478, i32 0, null, metadata !"operator+=<32, true>", metadata !"operator+=<32, true>", metadata !"_ZN11ap_int_baseILi3ELb0ELb1EEpLILi32ELb1EEERS0_RKS_IXT_EXT0_EXleT_Li64EEE", metadata !46, i32 1715, metadata !418, i1 false, i1 true, i32 0, i32 0, null, i32 256, i1 false, null, metadata !442, null, metadata !58, i32 1715} ; [ DW_TAG_subprogram ]
!418 = metadata !{i32 786453, i32 0, metadata !"", i32 0, i32 0, i64 0, i64 0, i64 0, i32 0, null, metadata !419, i32 0, i32 0} ; [ DW_TAG_subroutine_type ]
!419 = metadata !{metadata !76, metadata !72, metadata !420}
!420 = metadata !{i32 786448, null, null, null, i32 0, i64 0, i64 0, i64 0, i32 0, metadata !421} ; [ DW_TAG_reference_type ]
!421 = metadata !{i32 786434, null, metadata !"ap_int_base<32, true, true>", metadata !46, i32 1302, i64 32, i64 32, i32 0, i32 0, null, metadata !422, i32 0, null, metadata !867} ; [ DW_TAG_class_type ]
!422 = metadata !{metadata !423, metadata !435, metadata !439, metadata !445, metadata !446, metadata !449, metadata !452, metadata !455, metadata !458, metadata !461, metadata !464, metadata !467, metadata !470, metadata !473, metadata !476, metadata !479, metadata !482, metadata !485, metadata !488, metadata !491, metadata !496, metadata !499, metadata !500, metadata !501, metadata !504, metadata !505, metadata !508, metadata !511, metadata !514, metadata !517, metadata !526, metadata !529, metadata !532, metadata !535, metadata !538, metadata !541, metadata !544, metadata !547, metadata !550, metadata !551, metadata !556, metadata !559, metadata !560, metadata !561, metadata !562, metadata !563, metadata !564, metadata !567, metadata !568, metadata !571, metadata !572, metadata !573, metadata !574, metadata !575, metadata !576, metadata !579, metadata !580, metadata !581, metadata !584, metadata !585, metadata !588, metadata !589, metadata !827, metadata !831, metadata !832, metadata !835, metadata !836, metadata !840, metadata !841, metadata !842, metadata !843, metadata !846, metadata !847, metadata !848, metadata !849, metadata !850, metadata !851, metadata !852, metadata !853, metadata !854, metadata !855, metadata !856, metadata !857, metadata !860, metadata !863, metadata !866}
!423 = metadata !{i32 786460, metadata !421, null, metadata !46, i32 0, i64 0, i64 0, i64 0, i32 0, metadata !424} ; [ DW_TAG_inheritance ]
!424 = metadata !{i32 786434, null, metadata !"ssdm_int<32 + 1024 * 0, true>", metadata !50, i32 34, i64 32, i64 32, i32 0, i32 0, null, metadata !425, i32 0, null, metadata !432} ; [ DW_TAG_class_type ]
!425 = metadata !{metadata !426, metadata !428}
!426 = metadata !{i32 786445, metadata !424, metadata !"V", metadata !50, i32 34, i64 32, i64 32, i64 0, i32 0, metadata !427} ; [ DW_TAG_member ]
!427 = metadata !{i32 786468, null, metadata !"int32", null, i32 0, i64 32, i64 32, i64 0, i32 0, i32 5} ; [ DW_TAG_base_type ]
!428 = metadata !{i32 786478, i32 0, metadata !424, metadata !"ssdm_int", metadata !"ssdm_int", metadata !"", metadata !50, i32 34, metadata !429, i1 false, i1 false, i32 0, i32 0, null, i32 256, i1 false, null, null, i32 0, metadata !58, i32 34} ; [ DW_TAG_subprogram ]
!429 = metadata !{i32 786453, i32 0, metadata !"", i32 0, i32 0, i64 0, i64 0, i64 0, i32 0, null, metadata !430, i32 0, i32 0} ; [ DW_TAG_subroutine_type ]
!430 = metadata !{null, metadata !431}
!431 = metadata !{i32 786447, i32 0, metadata !"", i32 0, i32 0, i64 64, i64 64, i64 0, i32 64, metadata !424} ; [ DW_TAG_pointer_type ]
!432 = metadata !{metadata !433, metadata !434}
!433 = metadata !{i32 786480, null, metadata !"_AP_N", metadata !67, i64 32, null, i32 0, i32 0} ; [ DW_TAG_template_value_parameter ]
!434 = metadata !{i32 786480, null, metadata !"_AP_S", metadata !38, i64 1, null, i32 0, i32 0} ; [ DW_TAG_template_value_parameter ]
!435 = metadata !{i32 786478, i32 0, metadata !421, metadata !"ap_int_base", metadata !"ap_int_base", metadata !"", metadata !46, i32 1340, metadata !436, i1 false, i1 false, i32 0, i32 0, null, i32 256, i1 false, null, null, i32 0, metadata !58, i32 1340} ; [ DW_TAG_subprogram ]
!436 = metadata !{i32 786453, i32 0, metadata !"", i32 0, i32 0, i64 0, i64 0, i64 0, i32 0, null, metadata !437, i32 0, i32 0} ; [ DW_TAG_subroutine_type ]
!437 = metadata !{null, metadata !438}
!438 = metadata !{i32 786447, i32 0, metadata !"", i32 0, i32 0, i64 64, i64 64, i64 0, i32 64, metadata !421} ; [ DW_TAG_pointer_type ]
!439 = metadata !{i32 786478, i32 0, metadata !421, metadata !"ap_int_base<32, true>", metadata !"ap_int_base<32, true>", metadata !"", metadata !46, i32 1352, metadata !440, i1 false, i1 false, i32 0, i32 0, null, i32 256, i1 false, null, metadata !442, i32 0, metadata !58, i32 1352} ; [ DW_TAG_subprogram ]
!440 = metadata !{i32 786453, i32 0, metadata !"", i32 0, i32 0, i64 0, i64 0, i64 0, i32 0, null, metadata !441, i32 0, i32 0} ; [ DW_TAG_subroutine_type ]
!441 = metadata !{null, metadata !438, metadata !420}
!442 = metadata !{metadata !443, metadata !444}
!443 = metadata !{i32 786480, null, metadata !"_AP_W2", metadata !67, i64 32, null, i32 0, i32 0} ; [ DW_TAG_template_value_parameter ]
!444 = metadata !{i32 786480, null, metadata !"_AP_S2", metadata !38, i64 1, null, i32 0, i32 0} ; [ DW_TAG_template_value_parameter ]
!445 = metadata !{i32 786478, i32 0, metadata !421, metadata !"ap_int_base<32, true>", metadata !"ap_int_base<32, true>", metadata !"", metadata !46, i32 1355, metadata !440, i1 false, i1 false, i32 0, i32 0, null, i32 256, i1 false, null, metadata !442, i32 0, metadata !58, i32 1355} ; [ DW_TAG_subprogram ]
!446 = metadata !{i32 786478, i32 0, metadata !421, metadata !"ap_int_base", metadata !"ap_int_base", metadata !"", metadata !46, i32 1362, metadata !447, i1 false, i1 false, i32 0, i32 0, null, i32 384, i1 false, null, null, i32 0, metadata !58, i32 1362} ; [ DW_TAG_subprogram ]
!447 = metadata !{i32 786453, i32 0, metadata !"", i32 0, i32 0, i64 0, i64 0, i64 0, i32 0, null, metadata !448, i32 0, i32 0} ; [ DW_TAG_subroutine_type ]
!448 = metadata !{null, metadata !438, metadata !38}
!449 = metadata !{i32 786478, i32 0, metadata !421, metadata !"ap_int_base", metadata !"ap_int_base", metadata !"", metadata !46, i32 1363, metadata !450, i1 false, i1 false, i32 0, i32 0, null, i32 384, i1 false, null, null, i32 0, metadata !58, i32 1363} ; [ DW_TAG_subprogram ]
!450 = metadata !{i32 786453, i32 0, metadata !"", i32 0, i32 0, i64 0, i64 0, i64 0, i32 0, null, metadata !451, i32 0, i32 0} ; [ DW_TAG_subroutine_type ]
!451 = metadata !{null, metadata !438, metadata !87}
!452 = metadata !{i32 786478, i32 0, metadata !421, metadata !"ap_int_base", metadata !"ap_int_base", metadata !"", metadata !46, i32 1364, metadata !453, i1 false, i1 false, i32 0, i32 0, null, i32 384, i1 false, null, null, i32 0, metadata !58, i32 1364} ; [ DW_TAG_subprogram ]
!453 = metadata !{i32 786453, i32 0, metadata !"", i32 0, i32 0, i64 0, i64 0, i64 0, i32 0, null, metadata !454, i32 0, i32 0} ; [ DW_TAG_subroutine_type ]
!454 = metadata !{null, metadata !438, metadata !91}
!455 = metadata !{i32 786478, i32 0, metadata !421, metadata !"ap_int_base", metadata !"ap_int_base", metadata !"", metadata !46, i32 1365, metadata !456, i1 false, i1 false, i32 0, i32 0, null, i32 384, i1 false, null, null, i32 0, metadata !58, i32 1365} ; [ DW_TAG_subprogram ]
!456 = metadata !{i32 786453, i32 0, metadata !"", i32 0, i32 0, i64 0, i64 0, i64 0, i32 0, null, metadata !457, i32 0, i32 0} ; [ DW_TAG_subroutine_type ]
!457 = metadata !{null, metadata !438, metadata !95}
!458 = metadata !{i32 786478, i32 0, metadata !421, metadata !"ap_int_base", metadata !"ap_int_base", metadata !"", metadata !46, i32 1366, metadata !459, i1 false, i1 false, i32 0, i32 0, null, i32 384, i1 false, null, null, i32 0, metadata !58, i32 1366} ; [ DW_TAG_subprogram ]
!459 = metadata !{i32 786453, i32 0, metadata !"", i32 0, i32 0, i64 0, i64 0, i64 0, i32 0, null, metadata !460, i32 0, i32 0} ; [ DW_TAG_subroutine_type ]
!460 = metadata !{null, metadata !438, metadata !99}
!461 = metadata !{i32 786478, i32 0, metadata !421, metadata !"ap_int_base", metadata !"ap_int_base", metadata !"", metadata !46, i32 1367, metadata !462, i1 false, i1 false, i32 0, i32 0, null, i32 384, i1 false, null, null, i32 0, metadata !58, i32 1367} ; [ DW_TAG_subprogram ]
!462 = metadata !{i32 786453, i32 0, metadata !"", i32 0, i32 0, i64 0, i64 0, i64 0, i32 0, null, metadata !463, i32 0, i32 0} ; [ DW_TAG_subroutine_type ]
!463 = metadata !{null, metadata !438, metadata !67}
!464 = metadata !{i32 786478, i32 0, metadata !421, metadata !"ap_int_base", metadata !"ap_int_base", metadata !"", metadata !46, i32 1368, metadata !465, i1 false, i1 false, i32 0, i32 0, null, i32 384, i1 false, null, null, i32 0, metadata !58, i32 1368} ; [ DW_TAG_subprogram ]
!465 = metadata !{i32 786453, i32 0, metadata !"", i32 0, i32 0, i64 0, i64 0, i64 0, i32 0, null, metadata !466, i32 0, i32 0} ; [ DW_TAG_subroutine_type ]
!466 = metadata !{null, metadata !438, metadata !106}
!467 = metadata !{i32 786478, i32 0, metadata !421, metadata !"ap_int_base", metadata !"ap_int_base", metadata !"", metadata !46, i32 1369, metadata !468, i1 false, i1 false, i32 0, i32 0, null, i32 384, i1 false, null, null, i32 0, metadata !58, i32 1369} ; [ DW_TAG_subprogram ]
!468 = metadata !{i32 786453, i32 0, metadata !"", i32 0, i32 0, i64 0, i64 0, i64 0, i32 0, null, metadata !469, i32 0, i32 0} ; [ DW_TAG_subroutine_type ]
!469 = metadata !{null, metadata !438, metadata !110}
!470 = metadata !{i32 786478, i32 0, metadata !421, metadata !"ap_int_base", metadata !"ap_int_base", metadata !"", metadata !46, i32 1370, metadata !471, i1 false, i1 false, i32 0, i32 0, null, i32 384, i1 false, null, null, i32 0, metadata !58, i32 1370} ; [ DW_TAG_subprogram ]
!471 = metadata !{i32 786453, i32 0, metadata !"", i32 0, i32 0, i64 0, i64 0, i64 0, i32 0, null, metadata !472, i32 0, i32 0} ; [ DW_TAG_subroutine_type ]
!472 = metadata !{null, metadata !438, metadata !114}
!473 = metadata !{i32 786478, i32 0, metadata !421, metadata !"ap_int_base", metadata !"ap_int_base", metadata !"", metadata !46, i32 1371, metadata !474, i1 false, i1 false, i32 0, i32 0, null, i32 384, i1 false, null, null, i32 0, metadata !58, i32 1371} ; [ DW_TAG_subprogram ]
!474 = metadata !{i32 786453, i32 0, metadata !"", i32 0, i32 0, i64 0, i64 0, i64 0, i32 0, null, metadata !475, i32 0, i32 0} ; [ DW_TAG_subroutine_type ]
!475 = metadata !{null, metadata !438, metadata !118}
!476 = metadata !{i32 786478, i32 0, metadata !421, metadata !"ap_int_base", metadata !"ap_int_base", metadata !"", metadata !46, i32 1372, metadata !477, i1 false, i1 false, i32 0, i32 0, null, i32 384, i1 false, null, null, i32 0, metadata !58, i32 1372} ; [ DW_TAG_subprogram ]
!477 = metadata !{i32 786453, i32 0, metadata !"", i32 0, i32 0, i64 0, i64 0, i64 0, i32 0, null, metadata !478, i32 0, i32 0} ; [ DW_TAG_subroutine_type ]
!478 = metadata !{null, metadata !438, metadata !123}
!479 = metadata !{i32 786478, i32 0, metadata !421, metadata !"ap_int_base", metadata !"ap_int_base", metadata !"", metadata !46, i32 1373, metadata !480, i1 false, i1 false, i32 0, i32 0, null, i32 384, i1 false, null, null, i32 0, metadata !58, i32 1373} ; [ DW_TAG_subprogram ]
!480 = metadata !{i32 786453, i32 0, metadata !"", i32 0, i32 0, i64 0, i64 0, i64 0, i32 0, null, metadata !481, i32 0, i32 0} ; [ DW_TAG_subroutine_type ]
!481 = metadata !{null, metadata !438, metadata !128}
!482 = metadata !{i32 786478, i32 0, metadata !421, metadata !"ap_int_base", metadata !"ap_int_base", metadata !"", metadata !46, i32 1374, metadata !483, i1 false, i1 false, i32 0, i32 0, null, i32 384, i1 false, null, null, i32 0, metadata !58, i32 1374} ; [ DW_TAG_subprogram ]
!483 = metadata !{i32 786453, i32 0, metadata !"", i32 0, i32 0, i64 0, i64 0, i64 0, i32 0, null, metadata !484, i32 0, i32 0} ; [ DW_TAG_subroutine_type ]
!484 = metadata !{null, metadata !438, metadata !132}
!485 = metadata !{i32 786478, i32 0, metadata !421, metadata !"ap_int_base", metadata !"ap_int_base", metadata !"", metadata !46, i32 1401, metadata !486, i1 false, i1 false, i32 0, i32 0, null, i32 256, i1 false, null, null, i32 0, metadata !58, i32 1401} ; [ DW_TAG_subprogram ]
!486 = metadata !{i32 786453, i32 0, metadata !"", i32 0, i32 0, i64 0, i64 0, i64 0, i32 0, null, metadata !487, i32 0, i32 0} ; [ DW_TAG_subroutine_type ]
!487 = metadata !{null, metadata !438, metadata !136}
!488 = metadata !{i32 786478, i32 0, metadata !421, metadata !"ap_int_base", metadata !"ap_int_base", metadata !"", metadata !46, i32 1408, metadata !489, i1 false, i1 false, i32 0, i32 0, null, i32 256, i1 false, null, null, i32 0, metadata !58, i32 1408} ; [ DW_TAG_subprogram ]
!489 = metadata !{i32 786453, i32 0, metadata !"", i32 0, i32 0, i64 0, i64 0, i64 0, i32 0, null, metadata !490, i32 0, i32 0} ; [ DW_TAG_subroutine_type ]
!490 = metadata !{null, metadata !438, metadata !136, metadata !87}
!491 = metadata !{i32 786478, i32 0, metadata !421, metadata !"read", metadata !"read", metadata !"_ZNV11ap_int_baseILi32ELb1ELb1EE4readEv", metadata !46, i32 1429, metadata !492, i1 false, i1 false, i32 0, i32 0, null, i32 256, i1 false, null, null, i32 0, metadata !58, i32 1429} ; [ DW_TAG_subprogram ]
!492 = metadata !{i32 786453, i32 0, metadata !"", i32 0, i32 0, i64 0, i64 0, i64 0, i32 0, null, metadata !493, i32 0, i32 0} ; [ DW_TAG_subroutine_type ]
!493 = metadata !{metadata !421, metadata !494}
!494 = metadata !{i32 786447, i32 0, metadata !"", i32 0, i32 0, i64 64, i64 64, i64 0, i32 64, metadata !495} ; [ DW_TAG_pointer_type ]
!495 = metadata !{i32 786485, null, metadata !"", null, i32 0, i64 0, i64 0, i64 0, i32 0, metadata !421} ; [ DW_TAG_volatile_type ]
!496 = metadata !{i32 786478, i32 0, metadata !421, metadata !"write", metadata !"write", metadata !"_ZNV11ap_int_baseILi32ELb1ELb1EE5writeERKS0_", metadata !46, i32 1435, metadata !497, i1 false, i1 false, i32 0, i32 0, null, i32 256, i1 false, null, null, i32 0, metadata !58, i32 1435} ; [ DW_TAG_subprogram ]
!497 = metadata !{i32 786453, i32 0, metadata !"", i32 0, i32 0, i64 0, i64 0, i64 0, i32 0, null, metadata !498, i32 0, i32 0} ; [ DW_TAG_subroutine_type ]
!498 = metadata !{null, metadata !494, metadata !420}
!499 = metadata !{i32 786478, i32 0, metadata !421, metadata !"operator=", metadata !"operator=", metadata !"_ZNV11ap_int_baseILi32ELb1ELb1EEaSERVKS0_", metadata !46, i32 1447, metadata !497, i1 false, i1 false, i32 0, i32 0, null, i32 256, i1 false, null, null, i32 0, metadata !58, i32 1447} ; [ DW_TAG_subprogram ]
!500 = metadata !{i32 786478, i32 0, metadata !421, metadata !"operator=", metadata !"operator=", metadata !"_ZNV11ap_int_baseILi32ELb1ELb1EEaSERKS0_", metadata !46, i32 1456, metadata !497, i1 false, i1 false, i32 0, i32 0, null, i32 256, i1 false, null, null, i32 0, metadata !58, i32 1456} ; [ DW_TAG_subprogram ]
!501 = metadata !{i32 786478, i32 0, metadata !421, metadata !"operator=", metadata !"operator=", metadata !"_ZN11ap_int_baseILi32ELb1ELb1EEaSERVKS0_", metadata !46, i32 1479, metadata !502, i1 false, i1 false, i32 0, i32 0, null, i32 256, i1 false, null, null, i32 0, metadata !58, i32 1479} ; [ DW_TAG_subprogram ]
!502 = metadata !{i32 786453, i32 0, metadata !"", i32 0, i32 0, i64 0, i64 0, i64 0, i32 0, null, metadata !503, i32 0, i32 0} ; [ DW_TAG_subroutine_type ]
!503 = metadata !{metadata !420, metadata !438, metadata !420}
!504 = metadata !{i32 786478, i32 0, metadata !421, metadata !"operator=", metadata !"operator=", metadata !"_ZN11ap_int_baseILi32ELb1ELb1EEaSERKS0_", metadata !46, i32 1484, metadata !502, i1 false, i1 false, i32 0, i32 0, null, i32 256, i1 false, null, null, i32 0, metadata !58, i32 1484} ; [ DW_TAG_subprogram ]
!505 = metadata !{i32 786478, i32 0, metadata !421, metadata !"operator=", metadata !"operator=", metadata !"_ZN11ap_int_baseILi32ELb1ELb1EEaSEPKc", metadata !46, i32 1488, metadata !506, i1 false, i1 false, i32 0, i32 0, null, i32 256, i1 false, null, null, i32 0, metadata !58, i32 1488} ; [ DW_TAG_subprogram ]
!506 = metadata !{i32 786453, i32 0, metadata !"", i32 0, i32 0, i64 0, i64 0, i64 0, i32 0, null, metadata !507, i32 0, i32 0} ; [ DW_TAG_subroutine_type ]
!507 = metadata !{metadata !420, metadata !438, metadata !136}
!508 = metadata !{i32 786478, i32 0, metadata !421, metadata !"set", metadata !"set", metadata !"_ZN11ap_int_baseILi32ELb1ELb1EE3setEPKca", metadata !46, i32 1496, metadata !509, i1 false, i1 false, i32 0, i32 0, null, i32 256, i1 false, null, null, i32 0, metadata !58, i32 1496} ; [ DW_TAG_subprogram ]
!509 = metadata !{i32 786453, i32 0, metadata !"", i32 0, i32 0, i64 0, i64 0, i64 0, i32 0, null, metadata !510, i32 0, i32 0} ; [ DW_TAG_subroutine_type ]
!510 = metadata !{metadata !420, metadata !438, metadata !136, metadata !87}
!511 = metadata !{i32 786478, i32 0, metadata !421, metadata !"operator=", metadata !"operator=", metadata !"_ZN11ap_int_baseILi32ELb1ELb1EEaSEy", metadata !46, i32 1505, metadata !512, i1 false, i1 false, i32 0, i32 0, null, i32 256, i1 false, null, null, i32 0, metadata !58, i32 1505} ; [ DW_TAG_subprogram ]
!512 = metadata !{i32 786453, i32 0, metadata !"", i32 0, i32 0, i64 0, i64 0, i64 0, i32 0, null, metadata !513, i32 0, i32 0} ; [ DW_TAG_subroutine_type ]
!513 = metadata !{metadata !420, metadata !438, metadata !124}
!514 = metadata !{i32 786478, i32 0, metadata !421, metadata !"operator=", metadata !"operator=", metadata !"_ZN11ap_int_baseILi32ELb1ELb1EEaSEx", metadata !46, i32 1510, metadata !515, i1 false, i1 false, i32 0, i32 0, null, i32 256, i1 false, null, null, i32 0, metadata !58, i32 1510} ; [ DW_TAG_subprogram ]
!515 = metadata !{i32 786453, i32 0, metadata !"", i32 0, i32 0, i64 0, i64 0, i64 0, i32 0, null, metadata !516, i32 0, i32 0} ; [ DW_TAG_subroutine_type ]
!516 = metadata !{metadata !420, metadata !438, metadata !119}
!517 = metadata !{i32 786478, i32 0, metadata !421, metadata !"operator long long", metadata !"operator long long", metadata !"_ZNK11ap_int_baseILi32ELb1ELb1EEcvxEv", metadata !46, i32 1551, metadata !518, i1 false, i1 false, i32 0, i32 0, null, i32 256, i1 false, null, null, i32 0, metadata !58, i32 1551} ; [ DW_TAG_subprogram ]
!518 = metadata !{i32 786453, i32 0, metadata !"", i32 0, i32 0, i64 0, i64 0, i64 0, i32 0, null, metadata !519, i32 0, i32 0} ; [ DW_TAG_subroutine_type ]
!519 = metadata !{metadata !520, metadata !524}
!520 = metadata !{i32 786454, metadata !421, metadata !"RetType", metadata !46, i32 1307, i64 0, i64 0, i64 0, i32 0, metadata !521} ; [ DW_TAG_typedef ]
!521 = metadata !{i32 786454, metadata !522, metadata !"Type", metadata !46, i32 1289, i64 0, i64 0, i64 0, i32 0, metadata !118} ; [ DW_TAG_typedef ]
!522 = metadata !{i32 786434, null, metadata !"retval<true>", metadata !46, i32 1288, i64 8, i64 8, i32 0, i32 0, null, metadata !174, i32 0, null, metadata !523} ; [ DW_TAG_class_type ]
!523 = metadata !{metadata !434}
!524 = metadata !{i32 786447, i32 0, metadata !"", i32 0, i32 0, i64 64, i64 64, i64 0, i32 64, metadata !525} ; [ DW_TAG_pointer_type ]
!525 = metadata !{i32 786470, null, metadata !"", null, i32 0, i64 0, i64 0, i64 0, i32 0, metadata !421} ; [ DW_TAG_const_type ]
!526 = metadata !{i32 786478, i32 0, metadata !421, metadata !"to_bool", metadata !"to_bool", metadata !"_ZNK11ap_int_baseILi32ELb1ELb1EE7to_boolEv", metadata !46, i32 1557, metadata !527, i1 false, i1 false, i32 0, i32 0, null, i32 256, i1 false, null, null, i32 0, metadata !58, i32 1557} ; [ DW_TAG_subprogram ]
!527 = metadata !{i32 786453, i32 0, metadata !"", i32 0, i32 0, i64 0, i64 0, i64 0, i32 0, null, metadata !528, i32 0, i32 0} ; [ DW_TAG_subroutine_type ]
!528 = metadata !{metadata !38, metadata !524}
!529 = metadata !{i32 786478, i32 0, metadata !421, metadata !"to_int", metadata !"to_int", metadata !"_ZNK11ap_int_baseILi32ELb1ELb1EE6to_intEv", metadata !46, i32 1558, metadata !530, i1 false, i1 false, i32 0, i32 0, null, i32 256, i1 false, null, null, i32 0, metadata !58, i32 1558} ; [ DW_TAG_subprogram ]
!530 = metadata !{i32 786453, i32 0, metadata !"", i32 0, i32 0, i64 0, i64 0, i64 0, i32 0, null, metadata !531, i32 0, i32 0} ; [ DW_TAG_subroutine_type ]
!531 = metadata !{metadata !67, metadata !524}
!532 = metadata !{i32 786478, i32 0, metadata !421, metadata !"to_uint", metadata !"to_uint", metadata !"_ZNK11ap_int_baseILi32ELb1ELb1EE7to_uintEv", metadata !46, i32 1559, metadata !533, i1 false, i1 false, i32 0, i32 0, null, i32 256, i1 false, null, null, i32 0, metadata !58, i32 1559} ; [ DW_TAG_subprogram ]
!533 = metadata !{i32 786453, i32 0, metadata !"", i32 0, i32 0, i64 0, i64 0, i64 0, i32 0, null, metadata !534, i32 0, i32 0} ; [ DW_TAG_subroutine_type ]
!534 = metadata !{metadata !106, metadata !524}
!535 = metadata !{i32 786478, i32 0, metadata !421, metadata !"to_long", metadata !"to_long", metadata !"_ZNK11ap_int_baseILi32ELb1ELb1EE7to_longEv", metadata !46, i32 1560, metadata !536, i1 false, i1 false, i32 0, i32 0, null, i32 256, i1 false, null, null, i32 0, metadata !58, i32 1560} ; [ DW_TAG_subprogram ]
!536 = metadata !{i32 786453, i32 0, metadata !"", i32 0, i32 0, i64 0, i64 0, i64 0, i32 0, null, metadata !537, i32 0, i32 0} ; [ DW_TAG_subroutine_type ]
!537 = metadata !{metadata !110, metadata !524}
!538 = metadata !{i32 786478, i32 0, metadata !421, metadata !"to_ulong", metadata !"to_ulong", metadata !"_ZNK11ap_int_baseILi32ELb1ELb1EE8to_ulongEv", metadata !46, i32 1561, metadata !539, i1 false, i1 false, i32 0, i32 0, null, i32 256, i1 false, null, null, i32 0, metadata !58, i32 1561} ; [ DW_TAG_subprogram ]
!539 = metadata !{i32 786453, i32 0, metadata !"", i32 0, i32 0, i64 0, i64 0, i64 0, i32 0, null, metadata !540, i32 0, i32 0} ; [ DW_TAG_subroutine_type ]
!540 = metadata !{metadata !114, metadata !524}
!541 = metadata !{i32 786478, i32 0, metadata !421, metadata !"to_int64", metadata !"to_int64", metadata !"_ZNK11ap_int_baseILi32ELb1ELb1EE8to_int64Ev", metadata !46, i32 1562, metadata !542, i1 false, i1 false, i32 0, i32 0, null, i32 256, i1 false, null, null, i32 0, metadata !58, i32 1562} ; [ DW_TAG_subprogram ]
!542 = metadata !{i32 786453, i32 0, metadata !"", i32 0, i32 0, i64 0, i64 0, i64 0, i32 0, null, metadata !543, i32 0, i32 0} ; [ DW_TAG_subroutine_type ]
!543 = metadata !{metadata !118, metadata !524}
!544 = metadata !{i32 786478, i32 0, metadata !421, metadata !"to_uint64", metadata !"to_uint64", metadata !"_ZNK11ap_int_baseILi32ELb1ELb1EE9to_uint64Ev", metadata !46, i32 1563, metadata !545, i1 false, i1 false, i32 0, i32 0, null, i32 256, i1 false, null, null, i32 0, metadata !58, i32 1563} ; [ DW_TAG_subprogram ]
!545 = metadata !{i32 786453, i32 0, metadata !"", i32 0, i32 0, i64 0, i64 0, i64 0, i32 0, null, metadata !546, i32 0, i32 0} ; [ DW_TAG_subroutine_type ]
!546 = metadata !{metadata !123, metadata !524}
!547 = metadata !{i32 786478, i32 0, metadata !421, metadata !"to_double", metadata !"to_double", metadata !"_ZNK11ap_int_baseILi32ELb1ELb1EE9to_doubleEv", metadata !46, i32 1564, metadata !548, i1 false, i1 false, i32 0, i32 0, null, i32 256, i1 false, null, null, i32 0, metadata !58, i32 1564} ; [ DW_TAG_subprogram ]
!548 = metadata !{i32 786453, i32 0, metadata !"", i32 0, i32 0, i64 0, i64 0, i64 0, i32 0, null, metadata !549, i32 0, i32 0} ; [ DW_TAG_subroutine_type ]
!549 = metadata !{metadata !132, metadata !524}
!550 = metadata !{i32 786478, i32 0, metadata !421, metadata !"length", metadata !"length", metadata !"_ZNK11ap_int_baseILi32ELb1ELb1EE6lengthEv", metadata !46, i32 1577, metadata !530, i1 false, i1 false, i32 0, i32 0, null, i32 256, i1 false, null, null, i32 0, metadata !58, i32 1577} ; [ DW_TAG_subprogram ]
!551 = metadata !{i32 786478, i32 0, metadata !421, metadata !"length", metadata !"length", metadata !"_ZNVK11ap_int_baseILi32ELb1ELb1EE6lengthEv", metadata !46, i32 1578, metadata !552, i1 false, i1 false, i32 0, i32 0, null, i32 256, i1 false, null, null, i32 0, metadata !58, i32 1578} ; [ DW_TAG_subprogram ]
!552 = metadata !{i32 786453, i32 0, metadata !"", i32 0, i32 0, i64 0, i64 0, i64 0, i32 0, null, metadata !553, i32 0, i32 0} ; [ DW_TAG_subroutine_type ]
!553 = metadata !{metadata !67, metadata !554}
!554 = metadata !{i32 786447, i32 0, metadata !"", i32 0, i32 0, i64 64, i64 64, i64 0, i32 64, metadata !555} ; [ DW_TAG_pointer_type ]
!555 = metadata !{i32 786470, null, metadata !"", null, i32 0, i64 0, i64 0, i64 0, i32 0, metadata !495} ; [ DW_TAG_const_type ]
!556 = metadata !{i32 786478, i32 0, metadata !421, metadata !"reverse", metadata !"reverse", metadata !"_ZN11ap_int_baseILi32ELb1ELb1EE7reverseEv", metadata !46, i32 1583, metadata !557, i1 false, i1 false, i32 0, i32 0, null, i32 256, i1 false, null, null, i32 0, metadata !58, i32 1583} ; [ DW_TAG_subprogram ]
!557 = metadata !{i32 786453, i32 0, metadata !"", i32 0, i32 0, i64 0, i64 0, i64 0, i32 0, null, metadata !558, i32 0, i32 0} ; [ DW_TAG_subroutine_type ]
!558 = metadata !{metadata !420, metadata !438}
!559 = metadata !{i32 786478, i32 0, metadata !421, metadata !"iszero", metadata !"iszero", metadata !"_ZNK11ap_int_baseILi32ELb1ELb1EE6iszeroEv", metadata !46, i32 1589, metadata !527, i1 false, i1 false, i32 0, i32 0, null, i32 256, i1 false, null, null, i32 0, metadata !58, i32 1589} ; [ DW_TAG_subprogram ]
!560 = metadata !{i32 786478, i32 0, metadata !421, metadata !"is_zero", metadata !"is_zero", metadata !"_ZNK11ap_int_baseILi32ELb1ELb1EE7is_zeroEv", metadata !46, i32 1594, metadata !527, i1 false, i1 false, i32 0, i32 0, null, i32 256, i1 false, null, null, i32 0, metadata !58, i32 1594} ; [ DW_TAG_subprogram ]
!561 = metadata !{i32 786478, i32 0, metadata !421, metadata !"sign", metadata !"sign", metadata !"_ZNK11ap_int_baseILi32ELb1ELb1EE4signEv", metadata !46, i32 1599, metadata !527, i1 false, i1 false, i32 0, i32 0, null, i32 256, i1 false, null, null, i32 0, metadata !58, i32 1599} ; [ DW_TAG_subprogram ]
!562 = metadata !{i32 786478, i32 0, metadata !421, metadata !"clear", metadata !"clear", metadata !"_ZN11ap_int_baseILi32ELb1ELb1EE5clearEi", metadata !46, i32 1607, metadata !462, i1 false, i1 false, i32 0, i32 0, null, i32 256, i1 false, null, null, i32 0, metadata !58, i32 1607} ; [ DW_TAG_subprogram ]
!563 = metadata !{i32 786478, i32 0, metadata !421, metadata !"invert", metadata !"invert", metadata !"_ZN11ap_int_baseILi32ELb1ELb1EE6invertEi", metadata !46, i32 1613, metadata !462, i1 false, i1 false, i32 0, i32 0, null, i32 256, i1 false, null, null, i32 0, metadata !58, i32 1613} ; [ DW_TAG_subprogram ]
!564 = metadata !{i32 786478, i32 0, metadata !421, metadata !"test", metadata !"test", metadata !"_ZNK11ap_int_baseILi32ELb1ELb1EE4testEi", metadata !46, i32 1621, metadata !565, i1 false, i1 false, i32 0, i32 0, null, i32 256, i1 false, null, null, i32 0, metadata !58, i32 1621} ; [ DW_TAG_subprogram ]
!565 = metadata !{i32 786453, i32 0, metadata !"", i32 0, i32 0, i64 0, i64 0, i64 0, i32 0, null, metadata !566, i32 0, i32 0} ; [ DW_TAG_subroutine_type ]
!566 = metadata !{metadata !38, metadata !524, metadata !67}
!567 = metadata !{i32 786478, i32 0, metadata !421, metadata !"set", metadata !"set", metadata !"_ZN11ap_int_baseILi32ELb1ELb1EE3setEi", metadata !46, i32 1627, metadata !462, i1 false, i1 false, i32 0, i32 0, null, i32 256, i1 false, null, null, i32 0, metadata !58, i32 1627} ; [ DW_TAG_subprogram ]
!568 = metadata !{i32 786478, i32 0, metadata !421, metadata !"set", metadata !"set", metadata !"_ZN11ap_int_baseILi32ELb1ELb1EE3setEib", metadata !46, i32 1633, metadata !569, i1 false, i1 false, i32 0, i32 0, null, i32 256, i1 false, null, null, i32 0, metadata !58, i32 1633} ; [ DW_TAG_subprogram ]
!569 = metadata !{i32 786453, i32 0, metadata !"", i32 0, i32 0, i64 0, i64 0, i64 0, i32 0, null, metadata !570, i32 0, i32 0} ; [ DW_TAG_subroutine_type ]
!570 = metadata !{null, metadata !438, metadata !67, metadata !38}
!571 = metadata !{i32 786478, i32 0, metadata !421, metadata !"lrotate", metadata !"lrotate", metadata !"_ZN11ap_int_baseILi32ELb1ELb1EE7lrotateEi", metadata !46, i32 1640, metadata !462, i1 false, i1 false, i32 0, i32 0, null, i32 256, i1 false, null, null, i32 0, metadata !58, i32 1640} ; [ DW_TAG_subprogram ]
!572 = metadata !{i32 786478, i32 0, metadata !421, metadata !"rrotate", metadata !"rrotate", metadata !"_ZN11ap_int_baseILi32ELb1ELb1EE7rrotateEi", metadata !46, i32 1649, metadata !462, i1 false, i1 false, i32 0, i32 0, null, i32 256, i1 false, null, null, i32 0, metadata !58, i32 1649} ; [ DW_TAG_subprogram ]
!573 = metadata !{i32 786478, i32 0, metadata !421, metadata !"set_bit", metadata !"set_bit", metadata !"_ZN11ap_int_baseILi32ELb1ELb1EE7set_bitEib", metadata !46, i32 1657, metadata !569, i1 false, i1 false, i32 0, i32 0, null, i32 256, i1 false, null, null, i32 0, metadata !58, i32 1657} ; [ DW_TAG_subprogram ]
!574 = metadata !{i32 786478, i32 0, metadata !421, metadata !"get_bit", metadata !"get_bit", metadata !"_ZNK11ap_int_baseILi32ELb1ELb1EE7get_bitEi", metadata !46, i32 1662, metadata !565, i1 false, i1 false, i32 0, i32 0, null, i32 256, i1 false, null, null, i32 0, metadata !58, i32 1662} ; [ DW_TAG_subprogram ]
!575 = metadata !{i32 786478, i32 0, metadata !421, metadata !"b_not", metadata !"b_not", metadata !"_ZN11ap_int_baseILi32ELb1ELb1EE5b_notEv", metadata !46, i32 1667, metadata !436, i1 false, i1 false, i32 0, i32 0, null, i32 256, i1 false, null, null, i32 0, metadata !58, i32 1667} ; [ DW_TAG_subprogram ]
!576 = metadata !{i32 786478, i32 0, metadata !421, metadata !"countLeadingZeros", metadata !"countLeadingZeros", metadata !"_ZN11ap_int_baseILi32ELb1ELb1EE17countLeadingZerosEv", metadata !46, i32 1674, metadata !577, i1 false, i1 false, i32 0, i32 0, null, i32 256, i1 false, null, null, i32 0, metadata !58, i32 1674} ; [ DW_TAG_subprogram ]
!577 = metadata !{i32 786453, i32 0, metadata !"", i32 0, i32 0, i64 0, i64 0, i64 0, i32 0, null, metadata !578, i32 0, i32 0} ; [ DW_TAG_subroutine_type ]
!578 = metadata !{metadata !67, metadata !438}
!579 = metadata !{i32 786478, i32 0, metadata !421, metadata !"operator++", metadata !"operator++", metadata !"_ZN11ap_int_baseILi32ELb1ELb1EEppEv", metadata !46, i32 1731, metadata !557, i1 false, i1 false, i32 0, i32 0, null, i32 256, i1 false, null, null, i32 0, metadata !58, i32 1731} ; [ DW_TAG_subprogram ]
!580 = metadata !{i32 786478, i32 0, metadata !421, metadata !"operator--", metadata !"operator--", metadata !"_ZN11ap_int_baseILi32ELb1ELb1EEmmEv", metadata !46, i32 1735, metadata !557, i1 false, i1 false, i32 0, i32 0, null, i32 256, i1 false, null, null, i32 0, metadata !58, i32 1735} ; [ DW_TAG_subprogram ]
!581 = metadata !{i32 786478, i32 0, metadata !421, metadata !"operator++", metadata !"operator++", metadata !"_ZN11ap_int_baseILi32ELb1ELb1EEppEi", metadata !46, i32 1743, metadata !582, i1 false, i1 false, i32 0, i32 0, null, i32 256, i1 false, null, null, i32 0, metadata !58, i32 1743} ; [ DW_TAG_subprogram ]
!582 = metadata !{i32 786453, i32 0, metadata !"", i32 0, i32 0, i64 0, i64 0, i64 0, i32 0, null, metadata !583, i32 0, i32 0} ; [ DW_TAG_subroutine_type ]
!583 = metadata !{metadata !525, metadata !438, metadata !67}
!584 = metadata !{i32 786478, i32 0, metadata !421, metadata !"operator--", metadata !"operator--", metadata !"_ZN11ap_int_baseILi32ELb1ELb1EEmmEi", metadata !46, i32 1748, metadata !582, i1 false, i1 false, i32 0, i32 0, null, i32 256, i1 false, null, null, i32 0, metadata !58, i32 1748} ; [ DW_TAG_subprogram ]
!585 = metadata !{i32 786478, i32 0, metadata !421, metadata !"operator+", metadata !"operator+", metadata !"_ZNK11ap_int_baseILi32ELb1ELb1EEpsEv", metadata !46, i32 1757, metadata !586, i1 false, i1 false, i32 0, i32 0, null, i32 256, i1 false, null, null, i32 0, metadata !58, i32 1757} ; [ DW_TAG_subprogram ]
!586 = metadata !{i32 786453, i32 0, metadata !"", i32 0, i32 0, i64 0, i64 0, i64 0, i32 0, null, metadata !587, i32 0, i32 0} ; [ DW_TAG_subroutine_type ]
!587 = metadata !{metadata !421, metadata !524}
!588 = metadata !{i32 786478, i32 0, metadata !421, metadata !"operator!", metadata !"operator!", metadata !"_ZNK11ap_int_baseILi32ELb1ELb1EEntEv", metadata !46, i32 1763, metadata !527, i1 false, i1 false, i32 0, i32 0, null, i32 256, i1 false, null, null, i32 0, metadata !58, i32 1763} ; [ DW_TAG_subprogram ]
!589 = metadata !{i32 786478, i32 0, metadata !421, metadata !"operator-", metadata !"operator-", metadata !"_ZNK11ap_int_baseILi32ELb1ELb1EEngEv", metadata !46, i32 1768, metadata !590, i1 false, i1 false, i32 0, i32 0, null, i32 256, i1 false, null, null, i32 0, metadata !58, i32 1768} ; [ DW_TAG_subprogram ]
!590 = metadata !{i32 786453, i32 0, metadata !"", i32 0, i32 0, i64 0, i64 0, i64 0, i32 0, null, metadata !591, i32 0, i32 0} ; [ DW_TAG_subroutine_type ]
!591 = metadata !{metadata !592, metadata !524}
!592 = metadata !{i32 786434, null, metadata !"ap_int_base<33, true, true>", metadata !46, i32 1302, i64 64, i64 64, i32 0, i32 0, null, metadata !593, i32 0, null, metadata !799} ; [ DW_TAG_class_type ]
!593 = metadata !{metadata !594, metadata !605, metadata !609, metadata !612, metadata !615, metadata !618, metadata !621, metadata !624, metadata !627, metadata !630, metadata !633, metadata !636, metadata !639, metadata !642, metadata !645, metadata !648, metadata !651, metadata !654, metadata !659, metadata !663, metadata !664, metadata !665, metadata !668, metadata !669, metadata !672, metadata !675, metadata !678, metadata !681, metadata !687, metadata !690, metadata !693, metadata !696, metadata !699, metadata !702, metadata !705, metadata !708, metadata !711, metadata !712, metadata !717, metadata !720, metadata !721, metadata !722, metadata !723, metadata !724, metadata !725, metadata !728, metadata !729, metadata !732, metadata !733, metadata !734, metadata !735, metadata !736, metadata !737, metadata !740, metadata !741, metadata !742, metadata !745, metadata !746, metadata !749, metadata !750, metadata !754, metadata !758, metadata !759, metadata !762, metadata !763, metadata !801, metadata !802, metadata !803, metadata !804, metadata !807, metadata !808, metadata !809, metadata !810, metadata !811, metadata !812, metadata !813, metadata !814, metadata !815, metadata !816, metadata !817, metadata !818, metadata !821, metadata !824}
!594 = metadata !{i32 786460, metadata !592, null, metadata !46, i32 0, i64 0, i64 0, i64 0, i32 0, metadata !595} ; [ DW_TAG_inheritance ]
!595 = metadata !{i32 786434, null, metadata !"ssdm_int<33 + 1024 * 0, true>", metadata !50, i32 35, i64 64, i64 64, i32 0, i32 0, null, metadata !596, i32 0, null, metadata !603} ; [ DW_TAG_class_type ]
!596 = metadata !{metadata !597, metadata !599}
!597 = metadata !{i32 786445, metadata !595, metadata !"V", metadata !50, i32 35, i64 33, i64 64, i64 0, i32 0, metadata !598} ; [ DW_TAG_member ]
!598 = metadata !{i32 786468, null, metadata !"int33", null, i32 0, i64 33, i64 64, i64 0, i32 0, i32 5} ; [ DW_TAG_base_type ]
!599 = metadata !{i32 786478, i32 0, metadata !595, metadata !"ssdm_int", metadata !"ssdm_int", metadata !"", metadata !50, i32 35, metadata !600, i1 false, i1 false, i32 0, i32 0, null, i32 256, i1 false, null, null, i32 0, metadata !58, i32 35} ; [ DW_TAG_subprogram ]
!600 = metadata !{i32 786453, i32 0, metadata !"", i32 0, i32 0, i64 0, i64 0, i64 0, i32 0, null, metadata !601, i32 0, i32 0} ; [ DW_TAG_subroutine_type ]
!601 = metadata !{null, metadata !602}
!602 = metadata !{i32 786447, i32 0, metadata !"", i32 0, i32 0, i64 64, i64 64, i64 0, i32 64, metadata !595} ; [ DW_TAG_pointer_type ]
!603 = metadata !{metadata !604, metadata !434}
!604 = metadata !{i32 786480, null, metadata !"_AP_N", metadata !67, i64 33, null, i32 0, i32 0} ; [ DW_TAG_template_value_parameter ]
!605 = metadata !{i32 786478, i32 0, metadata !592, metadata !"ap_int_base", metadata !"ap_int_base", metadata !"", metadata !46, i32 1340, metadata !606, i1 false, i1 false, i32 0, i32 0, null, i32 256, i1 false, null, null, i32 0, metadata !58, i32 1340} ; [ DW_TAG_subprogram ]
!606 = metadata !{i32 786453, i32 0, metadata !"", i32 0, i32 0, i64 0, i64 0, i64 0, i32 0, null, metadata !607, i32 0, i32 0} ; [ DW_TAG_subroutine_type ]
!607 = metadata !{null, metadata !608}
!608 = metadata !{i32 786447, i32 0, metadata !"", i32 0, i32 0, i64 64, i64 64, i64 0, i32 64, metadata !592} ; [ DW_TAG_pointer_type ]
!609 = metadata !{i32 786478, i32 0, metadata !592, metadata !"ap_int_base", metadata !"ap_int_base", metadata !"", metadata !46, i32 1362, metadata !610, i1 false, i1 false, i32 0, i32 0, null, i32 384, i1 false, null, null, i32 0, metadata !58, i32 1362} ; [ DW_TAG_subprogram ]
!610 = metadata !{i32 786453, i32 0, metadata !"", i32 0, i32 0, i64 0, i64 0, i64 0, i32 0, null, metadata !611, i32 0, i32 0} ; [ DW_TAG_subroutine_type ]
!611 = metadata !{null, metadata !608, metadata !38}
!612 = metadata !{i32 786478, i32 0, metadata !592, metadata !"ap_int_base", metadata !"ap_int_base", metadata !"", metadata !46, i32 1363, metadata !613, i1 false, i1 false, i32 0, i32 0, null, i32 384, i1 false, null, null, i32 0, metadata !58, i32 1363} ; [ DW_TAG_subprogram ]
!613 = metadata !{i32 786453, i32 0, metadata !"", i32 0, i32 0, i64 0, i64 0, i64 0, i32 0, null, metadata !614, i32 0, i32 0} ; [ DW_TAG_subroutine_type ]
!614 = metadata !{null, metadata !608, metadata !87}
!615 = metadata !{i32 786478, i32 0, metadata !592, metadata !"ap_int_base", metadata !"ap_int_base", metadata !"", metadata !46, i32 1364, metadata !616, i1 false, i1 false, i32 0, i32 0, null, i32 384, i1 false, null, null, i32 0, metadata !58, i32 1364} ; [ DW_TAG_subprogram ]
!616 = metadata !{i32 786453, i32 0, metadata !"", i32 0, i32 0, i64 0, i64 0, i64 0, i32 0, null, metadata !617, i32 0, i32 0} ; [ DW_TAG_subroutine_type ]
!617 = metadata !{null, metadata !608, metadata !91}
!618 = metadata !{i32 786478, i32 0, metadata !592, metadata !"ap_int_base", metadata !"ap_int_base", metadata !"", metadata !46, i32 1365, metadata !619, i1 false, i1 false, i32 0, i32 0, null, i32 384, i1 false, null, null, i32 0, metadata !58, i32 1365} ; [ DW_TAG_subprogram ]
!619 = metadata !{i32 786453, i32 0, metadata !"", i32 0, i32 0, i64 0, i64 0, i64 0, i32 0, null, metadata !620, i32 0, i32 0} ; [ DW_TAG_subroutine_type ]
!620 = metadata !{null, metadata !608, metadata !95}
!621 = metadata !{i32 786478, i32 0, metadata !592, metadata !"ap_int_base", metadata !"ap_int_base", metadata !"", metadata !46, i32 1366, metadata !622, i1 false, i1 false, i32 0, i32 0, null, i32 384, i1 false, null, null, i32 0, metadata !58, i32 1366} ; [ DW_TAG_subprogram ]
!622 = metadata !{i32 786453, i32 0, metadata !"", i32 0, i32 0, i64 0, i64 0, i64 0, i32 0, null, metadata !623, i32 0, i32 0} ; [ DW_TAG_subroutine_type ]
!623 = metadata !{null, metadata !608, metadata !99}
!624 = metadata !{i32 786478, i32 0, metadata !592, metadata !"ap_int_base", metadata !"ap_int_base", metadata !"", metadata !46, i32 1367, metadata !625, i1 false, i1 false, i32 0, i32 0, null, i32 384, i1 false, null, null, i32 0, metadata !58, i32 1367} ; [ DW_TAG_subprogram ]
!625 = metadata !{i32 786453, i32 0, metadata !"", i32 0, i32 0, i64 0, i64 0, i64 0, i32 0, null, metadata !626, i32 0, i32 0} ; [ DW_TAG_subroutine_type ]
!626 = metadata !{null, metadata !608, metadata !67}
!627 = metadata !{i32 786478, i32 0, metadata !592, metadata !"ap_int_base", metadata !"ap_int_base", metadata !"", metadata !46, i32 1368, metadata !628, i1 false, i1 false, i32 0, i32 0, null, i32 384, i1 false, null, null, i32 0, metadata !58, i32 1368} ; [ DW_TAG_subprogram ]
!628 = metadata !{i32 786453, i32 0, metadata !"", i32 0, i32 0, i64 0, i64 0, i64 0, i32 0, null, metadata !629, i32 0, i32 0} ; [ DW_TAG_subroutine_type ]
!629 = metadata !{null, metadata !608, metadata !106}
!630 = metadata !{i32 786478, i32 0, metadata !592, metadata !"ap_int_base", metadata !"ap_int_base", metadata !"", metadata !46, i32 1369, metadata !631, i1 false, i1 false, i32 0, i32 0, null, i32 384, i1 false, null, null, i32 0, metadata !58, i32 1369} ; [ DW_TAG_subprogram ]
!631 = metadata !{i32 786453, i32 0, metadata !"", i32 0, i32 0, i64 0, i64 0, i64 0, i32 0, null, metadata !632, i32 0, i32 0} ; [ DW_TAG_subroutine_type ]
!632 = metadata !{null, metadata !608, metadata !110}
!633 = metadata !{i32 786478, i32 0, metadata !592, metadata !"ap_int_base", metadata !"ap_int_base", metadata !"", metadata !46, i32 1370, metadata !634, i1 false, i1 false, i32 0, i32 0, null, i32 384, i1 false, null, null, i32 0, metadata !58, i32 1370} ; [ DW_TAG_subprogram ]
!634 = metadata !{i32 786453, i32 0, metadata !"", i32 0, i32 0, i64 0, i64 0, i64 0, i32 0, null, metadata !635, i32 0, i32 0} ; [ DW_TAG_subroutine_type ]
!635 = metadata !{null, metadata !608, metadata !114}
!636 = metadata !{i32 786478, i32 0, metadata !592, metadata !"ap_int_base", metadata !"ap_int_base", metadata !"", metadata !46, i32 1371, metadata !637, i1 false, i1 false, i32 0, i32 0, null, i32 384, i1 false, null, null, i32 0, metadata !58, i32 1371} ; [ DW_TAG_subprogram ]
!637 = metadata !{i32 786453, i32 0, metadata !"", i32 0, i32 0, i64 0, i64 0, i64 0, i32 0, null, metadata !638, i32 0, i32 0} ; [ DW_TAG_subroutine_type ]
!638 = metadata !{null, metadata !608, metadata !118}
!639 = metadata !{i32 786478, i32 0, metadata !592, metadata !"ap_int_base", metadata !"ap_int_base", metadata !"", metadata !46, i32 1372, metadata !640, i1 false, i1 false, i32 0, i32 0, null, i32 384, i1 false, null, null, i32 0, metadata !58, i32 1372} ; [ DW_TAG_subprogram ]
!640 = metadata !{i32 786453, i32 0, metadata !"", i32 0, i32 0, i64 0, i64 0, i64 0, i32 0, null, metadata !641, i32 0, i32 0} ; [ DW_TAG_subroutine_type ]
!641 = metadata !{null, metadata !608, metadata !123}
!642 = metadata !{i32 786478, i32 0, metadata !592, metadata !"ap_int_base", metadata !"ap_int_base", metadata !"", metadata !46, i32 1373, metadata !643, i1 false, i1 false, i32 0, i32 0, null, i32 384, i1 false, null, null, i32 0, metadata !58, i32 1373} ; [ DW_TAG_subprogram ]
!643 = metadata !{i32 786453, i32 0, metadata !"", i32 0, i32 0, i64 0, i64 0, i64 0, i32 0, null, metadata !644, i32 0, i32 0} ; [ DW_TAG_subroutine_type ]
!644 = metadata !{null, metadata !608, metadata !128}
!645 = metadata !{i32 786478, i32 0, metadata !592, metadata !"ap_int_base", metadata !"ap_int_base", metadata !"", metadata !46, i32 1374, metadata !646, i1 false, i1 false, i32 0, i32 0, null, i32 384, i1 false, null, null, i32 0, metadata !58, i32 1374} ; [ DW_TAG_subprogram ]
!646 = metadata !{i32 786453, i32 0, metadata !"", i32 0, i32 0, i64 0, i64 0, i64 0, i32 0, null, metadata !647, i32 0, i32 0} ; [ DW_TAG_subroutine_type ]
!647 = metadata !{null, metadata !608, metadata !132}
!648 = metadata !{i32 786478, i32 0, metadata !592, metadata !"ap_int_base", metadata !"ap_int_base", metadata !"", metadata !46, i32 1401, metadata !649, i1 false, i1 false, i32 0, i32 0, null, i32 256, i1 false, null, null, i32 0, metadata !58, i32 1401} ; [ DW_TAG_subprogram ]
!649 = metadata !{i32 786453, i32 0, metadata !"", i32 0, i32 0, i64 0, i64 0, i64 0, i32 0, null, metadata !650, i32 0, i32 0} ; [ DW_TAG_subroutine_type ]
!650 = metadata !{null, metadata !608, metadata !136}
!651 = metadata !{i32 786478, i32 0, metadata !592, metadata !"ap_int_base", metadata !"ap_int_base", metadata !"", metadata !46, i32 1408, metadata !652, i1 false, i1 false, i32 0, i32 0, null, i32 256, i1 false, null, null, i32 0, metadata !58, i32 1408} ; [ DW_TAG_subprogram ]
!652 = metadata !{i32 786453, i32 0, metadata !"", i32 0, i32 0, i64 0, i64 0, i64 0, i32 0, null, metadata !653, i32 0, i32 0} ; [ DW_TAG_subroutine_type ]
!653 = metadata !{null, metadata !608, metadata !136, metadata !87}
!654 = metadata !{i32 786478, i32 0, metadata !592, metadata !"read", metadata !"read", metadata !"_ZNV11ap_int_baseILi33ELb1ELb1EE4readEv", metadata !46, i32 1429, metadata !655, i1 false, i1 false, i32 0, i32 0, null, i32 256, i1 false, null, null, i32 0, metadata !58, i32 1429} ; [ DW_TAG_subprogram ]
!655 = metadata !{i32 786453, i32 0, metadata !"", i32 0, i32 0, i64 0, i64 0, i64 0, i32 0, null, metadata !656, i32 0, i32 0} ; [ DW_TAG_subroutine_type ]
!656 = metadata !{metadata !592, metadata !657}
!657 = metadata !{i32 786447, i32 0, metadata !"", i32 0, i32 0, i64 64, i64 64, i64 0, i32 64, metadata !658} ; [ DW_TAG_pointer_type ]
!658 = metadata !{i32 786485, null, metadata !"", null, i32 0, i64 0, i64 0, i64 0, i32 0, metadata !592} ; [ DW_TAG_volatile_type ]
!659 = metadata !{i32 786478, i32 0, metadata !592, metadata !"write", metadata !"write", metadata !"_ZNV11ap_int_baseILi33ELb1ELb1EE5writeERKS0_", metadata !46, i32 1435, metadata !660, i1 false, i1 false, i32 0, i32 0, null, i32 256, i1 false, null, null, i32 0, metadata !58, i32 1435} ; [ DW_TAG_subprogram ]
!660 = metadata !{i32 786453, i32 0, metadata !"", i32 0, i32 0, i64 0, i64 0, i64 0, i32 0, null, metadata !661, i32 0, i32 0} ; [ DW_TAG_subroutine_type ]
!661 = metadata !{null, metadata !657, metadata !662}
!662 = metadata !{i32 786448, null, null, null, i32 0, i64 0, i64 0, i64 0, i32 0, metadata !592} ; [ DW_TAG_reference_type ]
!663 = metadata !{i32 786478, i32 0, metadata !592, metadata !"operator=", metadata !"operator=", metadata !"_ZNV11ap_int_baseILi33ELb1ELb1EEaSERVKS0_", metadata !46, i32 1447, metadata !660, i1 false, i1 false, i32 0, i32 0, null, i32 256, i1 false, null, null, i32 0, metadata !58, i32 1447} ; [ DW_TAG_subprogram ]
!664 = metadata !{i32 786478, i32 0, metadata !592, metadata !"operator=", metadata !"operator=", metadata !"_ZNV11ap_int_baseILi33ELb1ELb1EEaSERKS0_", metadata !46, i32 1456, metadata !660, i1 false, i1 false, i32 0, i32 0, null, i32 256, i1 false, null, null, i32 0, metadata !58, i32 1456} ; [ DW_TAG_subprogram ]
!665 = metadata !{i32 786478, i32 0, metadata !592, metadata !"operator=", metadata !"operator=", metadata !"_ZN11ap_int_baseILi33ELb1ELb1EEaSERVKS0_", metadata !46, i32 1479, metadata !666, i1 false, i1 false, i32 0, i32 0, null, i32 256, i1 false, null, null, i32 0, metadata !58, i32 1479} ; [ DW_TAG_subprogram ]
!666 = metadata !{i32 786453, i32 0, metadata !"", i32 0, i32 0, i64 0, i64 0, i64 0, i32 0, null, metadata !667, i32 0, i32 0} ; [ DW_TAG_subroutine_type ]
!667 = metadata !{metadata !662, metadata !608, metadata !662}
!668 = metadata !{i32 786478, i32 0, metadata !592, metadata !"operator=", metadata !"operator=", metadata !"_ZN11ap_int_baseILi33ELb1ELb1EEaSERKS0_", metadata !46, i32 1484, metadata !666, i1 false, i1 false, i32 0, i32 0, null, i32 256, i1 false, null, null, i32 0, metadata !58, i32 1484} ; [ DW_TAG_subprogram ]
!669 = metadata !{i32 786478, i32 0, metadata !592, metadata !"operator=", metadata !"operator=", metadata !"_ZN11ap_int_baseILi33ELb1ELb1EEaSEPKc", metadata !46, i32 1488, metadata !670, i1 false, i1 false, i32 0, i32 0, null, i32 256, i1 false, null, null, i32 0, metadata !58, i32 1488} ; [ DW_TAG_subprogram ]
!670 = metadata !{i32 786453, i32 0, metadata !"", i32 0, i32 0, i64 0, i64 0, i64 0, i32 0, null, metadata !671, i32 0, i32 0} ; [ DW_TAG_subroutine_type ]
!671 = metadata !{metadata !662, metadata !608, metadata !136}
!672 = metadata !{i32 786478, i32 0, metadata !592, metadata !"set", metadata !"set", metadata !"_ZN11ap_int_baseILi33ELb1ELb1EE3setEPKca", metadata !46, i32 1496, metadata !673, i1 false, i1 false, i32 0, i32 0, null, i32 256, i1 false, null, null, i32 0, metadata !58, i32 1496} ; [ DW_TAG_subprogram ]
!673 = metadata !{i32 786453, i32 0, metadata !"", i32 0, i32 0, i64 0, i64 0, i64 0, i32 0, null, metadata !674, i32 0, i32 0} ; [ DW_TAG_subroutine_type ]
!674 = metadata !{metadata !662, metadata !608, metadata !136, metadata !87}
!675 = metadata !{i32 786478, i32 0, metadata !592, metadata !"operator=", metadata !"operator=", metadata !"_ZN11ap_int_baseILi33ELb1ELb1EEaSEy", metadata !46, i32 1505, metadata !676, i1 false, i1 false, i32 0, i32 0, null, i32 256, i1 false, null, null, i32 0, metadata !58, i32 1505} ; [ DW_TAG_subprogram ]
!676 = metadata !{i32 786453, i32 0, metadata !"", i32 0, i32 0, i64 0, i64 0, i64 0, i32 0, null, metadata !677, i32 0, i32 0} ; [ DW_TAG_subroutine_type ]
!677 = metadata !{metadata !662, metadata !608, metadata !124}
!678 = metadata !{i32 786478, i32 0, metadata !592, metadata !"operator=", metadata !"operator=", metadata !"_ZN11ap_int_baseILi33ELb1ELb1EEaSEx", metadata !46, i32 1510, metadata !679, i1 false, i1 false, i32 0, i32 0, null, i32 256, i1 false, null, null, i32 0, metadata !58, i32 1510} ; [ DW_TAG_subprogram ]
!679 = metadata !{i32 786453, i32 0, metadata !"", i32 0, i32 0, i64 0, i64 0, i64 0, i32 0, null, metadata !680, i32 0, i32 0} ; [ DW_TAG_subroutine_type ]
!680 = metadata !{metadata !662, metadata !608, metadata !119}
!681 = metadata !{i32 786478, i32 0, metadata !592, metadata !"operator long long", metadata !"operator long long", metadata !"_ZNK11ap_int_baseILi33ELb1ELb1EEcvxEv", metadata !46, i32 1551, metadata !682, i1 false, i1 false, i32 0, i32 0, null, i32 256, i1 false, null, null, i32 0, metadata !58, i32 1551} ; [ DW_TAG_subprogram ]
!682 = metadata !{i32 786453, i32 0, metadata !"", i32 0, i32 0, i64 0, i64 0, i64 0, i32 0, null, metadata !683, i32 0, i32 0} ; [ DW_TAG_subroutine_type ]
!683 = metadata !{metadata !684, metadata !685}
!684 = metadata !{i32 786454, metadata !592, metadata !"RetType", metadata !46, i32 1307, i64 0, i64 0, i64 0, i32 0, metadata !521} ; [ DW_TAG_typedef ]
!685 = metadata !{i32 786447, i32 0, metadata !"", i32 0, i32 0, i64 64, i64 64, i64 0, i32 64, metadata !686} ; [ DW_TAG_pointer_type ]
!686 = metadata !{i32 786470, null, metadata !"", null, i32 0, i64 0, i64 0, i64 0, i32 0, metadata !592} ; [ DW_TAG_const_type ]
!687 = metadata !{i32 786478, i32 0, metadata !592, metadata !"to_bool", metadata !"to_bool", metadata !"_ZNK11ap_int_baseILi33ELb1ELb1EE7to_boolEv", metadata !46, i32 1557, metadata !688, i1 false, i1 false, i32 0, i32 0, null, i32 256, i1 false, null, null, i32 0, metadata !58, i32 1557} ; [ DW_TAG_subprogram ]
!688 = metadata !{i32 786453, i32 0, metadata !"", i32 0, i32 0, i64 0, i64 0, i64 0, i32 0, null, metadata !689, i32 0, i32 0} ; [ DW_TAG_subroutine_type ]
!689 = metadata !{metadata !38, metadata !685}
!690 = metadata !{i32 786478, i32 0, metadata !592, metadata !"to_int", metadata !"to_int", metadata !"_ZNK11ap_int_baseILi33ELb1ELb1EE6to_intEv", metadata !46, i32 1558, metadata !691, i1 false, i1 false, i32 0, i32 0, null, i32 256, i1 false, null, null, i32 0, metadata !58, i32 1558} ; [ DW_TAG_subprogram ]
!691 = metadata !{i32 786453, i32 0, metadata !"", i32 0, i32 0, i64 0, i64 0, i64 0, i32 0, null, metadata !692, i32 0, i32 0} ; [ DW_TAG_subroutine_type ]
!692 = metadata !{metadata !67, metadata !685}
!693 = metadata !{i32 786478, i32 0, metadata !592, metadata !"to_uint", metadata !"to_uint", metadata !"_ZNK11ap_int_baseILi33ELb1ELb1EE7to_uintEv", metadata !46, i32 1559, metadata !694, i1 false, i1 false, i32 0, i32 0, null, i32 256, i1 false, null, null, i32 0, metadata !58, i32 1559} ; [ DW_TAG_subprogram ]
!694 = metadata !{i32 786453, i32 0, metadata !"", i32 0, i32 0, i64 0, i64 0, i64 0, i32 0, null, metadata !695, i32 0, i32 0} ; [ DW_TAG_subroutine_type ]
!695 = metadata !{metadata !106, metadata !685}
!696 = metadata !{i32 786478, i32 0, metadata !592, metadata !"to_long", metadata !"to_long", metadata !"_ZNK11ap_int_baseILi33ELb1ELb1EE7to_longEv", metadata !46, i32 1560, metadata !697, i1 false, i1 false, i32 0, i32 0, null, i32 256, i1 false, null, null, i32 0, metadata !58, i32 1560} ; [ DW_TAG_subprogram ]
!697 = metadata !{i32 786453, i32 0, metadata !"", i32 0, i32 0, i64 0, i64 0, i64 0, i32 0, null, metadata !698, i32 0, i32 0} ; [ DW_TAG_subroutine_type ]
!698 = metadata !{metadata !110, metadata !685}
!699 = metadata !{i32 786478, i32 0, metadata !592, metadata !"to_ulong", metadata !"to_ulong", metadata !"_ZNK11ap_int_baseILi33ELb1ELb1EE8to_ulongEv", metadata !46, i32 1561, metadata !700, i1 false, i1 false, i32 0, i32 0, null, i32 256, i1 false, null, null, i32 0, metadata !58, i32 1561} ; [ DW_TAG_subprogram ]
!700 = metadata !{i32 786453, i32 0, metadata !"", i32 0, i32 0, i64 0, i64 0, i64 0, i32 0, null, metadata !701, i32 0, i32 0} ; [ DW_TAG_subroutine_type ]
!701 = metadata !{metadata !114, metadata !685}
!702 = metadata !{i32 786478, i32 0, metadata !592, metadata !"to_int64", metadata !"to_int64", metadata !"_ZNK11ap_int_baseILi33ELb1ELb1EE8to_int64Ev", metadata !46, i32 1562, metadata !703, i1 false, i1 false, i32 0, i32 0, null, i32 256, i1 false, null, null, i32 0, metadata !58, i32 1562} ; [ DW_TAG_subprogram ]
!703 = metadata !{i32 786453, i32 0, metadata !"", i32 0, i32 0, i64 0, i64 0, i64 0, i32 0, null, metadata !704, i32 0, i32 0} ; [ DW_TAG_subroutine_type ]
!704 = metadata !{metadata !118, metadata !685}
!705 = metadata !{i32 786478, i32 0, metadata !592, metadata !"to_uint64", metadata !"to_uint64", metadata !"_ZNK11ap_int_baseILi33ELb1ELb1EE9to_uint64Ev", metadata !46, i32 1563, metadata !706, i1 false, i1 false, i32 0, i32 0, null, i32 256, i1 false, null, null, i32 0, metadata !58, i32 1563} ; [ DW_TAG_subprogram ]
!706 = metadata !{i32 786453, i32 0, metadata !"", i32 0, i32 0, i64 0, i64 0, i64 0, i32 0, null, metadata !707, i32 0, i32 0} ; [ DW_TAG_subroutine_type ]
!707 = metadata !{metadata !123, metadata !685}
!708 = metadata !{i32 786478, i32 0, metadata !592, metadata !"to_double", metadata !"to_double", metadata !"_ZNK11ap_int_baseILi33ELb1ELb1EE9to_doubleEv", metadata !46, i32 1564, metadata !709, i1 false, i1 false, i32 0, i32 0, null, i32 256, i1 false, null, null, i32 0, metadata !58, i32 1564} ; [ DW_TAG_subprogram ]
!709 = metadata !{i32 786453, i32 0, metadata !"", i32 0, i32 0, i64 0, i64 0, i64 0, i32 0, null, metadata !710, i32 0, i32 0} ; [ DW_TAG_subroutine_type ]
!710 = metadata !{metadata !132, metadata !685}
!711 = metadata !{i32 786478, i32 0, metadata !592, metadata !"length", metadata !"length", metadata !"_ZNK11ap_int_baseILi33ELb1ELb1EE6lengthEv", metadata !46, i32 1577, metadata !691, i1 false, i1 false, i32 0, i32 0, null, i32 256, i1 false, null, null, i32 0, metadata !58, i32 1577} ; [ DW_TAG_subprogram ]
!712 = metadata !{i32 786478, i32 0, metadata !592, metadata !"length", metadata !"length", metadata !"_ZNVK11ap_int_baseILi33ELb1ELb1EE6lengthEv", metadata !46, i32 1578, metadata !713, i1 false, i1 false, i32 0, i32 0, null, i32 256, i1 false, null, null, i32 0, metadata !58, i32 1578} ; [ DW_TAG_subprogram ]
!713 = metadata !{i32 786453, i32 0, metadata !"", i32 0, i32 0, i64 0, i64 0, i64 0, i32 0, null, metadata !714, i32 0, i32 0} ; [ DW_TAG_subroutine_type ]
!714 = metadata !{metadata !67, metadata !715}
!715 = metadata !{i32 786447, i32 0, metadata !"", i32 0, i32 0, i64 64, i64 64, i64 0, i32 64, metadata !716} ; [ DW_TAG_pointer_type ]
!716 = metadata !{i32 786470, null, metadata !"", null, i32 0, i64 0, i64 0, i64 0, i32 0, metadata !658} ; [ DW_TAG_const_type ]
!717 = metadata !{i32 786478, i32 0, metadata !592, metadata !"reverse", metadata !"reverse", metadata !"_ZN11ap_int_baseILi33ELb1ELb1EE7reverseEv", metadata !46, i32 1583, metadata !718, i1 false, i1 false, i32 0, i32 0, null, i32 256, i1 false, null, null, i32 0, metadata !58, i32 1583} ; [ DW_TAG_subprogram ]
!718 = metadata !{i32 786453, i32 0, metadata !"", i32 0, i32 0, i64 0, i64 0, i64 0, i32 0, null, metadata !719, i32 0, i32 0} ; [ DW_TAG_subroutine_type ]
!719 = metadata !{metadata !662, metadata !608}
!720 = metadata !{i32 786478, i32 0, metadata !592, metadata !"iszero", metadata !"iszero", metadata !"_ZNK11ap_int_baseILi33ELb1ELb1EE6iszeroEv", metadata !46, i32 1589, metadata !688, i1 false, i1 false, i32 0, i32 0, null, i32 256, i1 false, null, null, i32 0, metadata !58, i32 1589} ; [ DW_TAG_subprogram ]
!721 = metadata !{i32 786478, i32 0, metadata !592, metadata !"is_zero", metadata !"is_zero", metadata !"_ZNK11ap_int_baseILi33ELb1ELb1EE7is_zeroEv", metadata !46, i32 1594, metadata !688, i1 false, i1 false, i32 0, i32 0, null, i32 256, i1 false, null, null, i32 0, metadata !58, i32 1594} ; [ DW_TAG_subprogram ]
!722 = metadata !{i32 786478, i32 0, metadata !592, metadata !"sign", metadata !"sign", metadata !"_ZNK11ap_int_baseILi33ELb1ELb1EE4signEv", metadata !46, i32 1599, metadata !688, i1 false, i1 false, i32 0, i32 0, null, i32 256, i1 false, null, null, i32 0, metadata !58, i32 1599} ; [ DW_TAG_subprogram ]
!723 = metadata !{i32 786478, i32 0, metadata !592, metadata !"clear", metadata !"clear", metadata !"_ZN11ap_int_baseILi33ELb1ELb1EE5clearEi", metadata !46, i32 1607, metadata !625, i1 false, i1 false, i32 0, i32 0, null, i32 256, i1 false, null, null, i32 0, metadata !58, i32 1607} ; [ DW_TAG_subprogram ]
!724 = metadata !{i32 786478, i32 0, metadata !592, metadata !"invert", metadata !"invert", metadata !"_ZN11ap_int_baseILi33ELb1ELb1EE6invertEi", metadata !46, i32 1613, metadata !625, i1 false, i1 false, i32 0, i32 0, null, i32 256, i1 false, null, null, i32 0, metadata !58, i32 1613} ; [ DW_TAG_subprogram ]
!725 = metadata !{i32 786478, i32 0, metadata !592, metadata !"test", metadata !"test", metadata !"_ZNK11ap_int_baseILi33ELb1ELb1EE4testEi", metadata !46, i32 1621, metadata !726, i1 false, i1 false, i32 0, i32 0, null, i32 256, i1 false, null, null, i32 0, metadata !58, i32 1621} ; [ DW_TAG_subprogram ]
!726 = metadata !{i32 786453, i32 0, metadata !"", i32 0, i32 0, i64 0, i64 0, i64 0, i32 0, null, metadata !727, i32 0, i32 0} ; [ DW_TAG_subroutine_type ]
!727 = metadata !{metadata !38, metadata !685, metadata !67}
!728 = metadata !{i32 786478, i32 0, metadata !592, metadata !"set", metadata !"set", metadata !"_ZN11ap_int_baseILi33ELb1ELb1EE3setEi", metadata !46, i32 1627, metadata !625, i1 false, i1 false, i32 0, i32 0, null, i32 256, i1 false, null, null, i32 0, metadata !58, i32 1627} ; [ DW_TAG_subprogram ]
!729 = metadata !{i32 786478, i32 0, metadata !592, metadata !"set", metadata !"set", metadata !"_ZN11ap_int_baseILi33ELb1ELb1EE3setEib", metadata !46, i32 1633, metadata !730, i1 false, i1 false, i32 0, i32 0, null, i32 256, i1 false, null, null, i32 0, metadata !58, i32 1633} ; [ DW_TAG_subprogram ]
!730 = metadata !{i32 786453, i32 0, metadata !"", i32 0, i32 0, i64 0, i64 0, i64 0, i32 0, null, metadata !731, i32 0, i32 0} ; [ DW_TAG_subroutine_type ]
!731 = metadata !{null, metadata !608, metadata !67, metadata !38}
!732 = metadata !{i32 786478, i32 0, metadata !592, metadata !"lrotate", metadata !"lrotate", metadata !"_ZN11ap_int_baseILi33ELb1ELb1EE7lrotateEi", metadata !46, i32 1640, metadata !625, i1 false, i1 false, i32 0, i32 0, null, i32 256, i1 false, null, null, i32 0, metadata !58, i32 1640} ; [ DW_TAG_subprogram ]
!733 = metadata !{i32 786478, i32 0, metadata !592, metadata !"rrotate", metadata !"rrotate", metadata !"_ZN11ap_int_baseILi33ELb1ELb1EE7rrotateEi", metadata !46, i32 1649, metadata !625, i1 false, i1 false, i32 0, i32 0, null, i32 256, i1 false, null, null, i32 0, metadata !58, i32 1649} ; [ DW_TAG_subprogram ]
!734 = metadata !{i32 786478, i32 0, metadata !592, metadata !"set_bit", metadata !"set_bit", metadata !"_ZN11ap_int_baseILi33ELb1ELb1EE7set_bitEib", metadata !46, i32 1657, metadata !730, i1 false, i1 false, i32 0, i32 0, null, i32 256, i1 false, null, null, i32 0, metadata !58, i32 1657} ; [ DW_TAG_subprogram ]
!735 = metadata !{i32 786478, i32 0, metadata !592, metadata !"get_bit", metadata !"get_bit", metadata !"_ZNK11ap_int_baseILi33ELb1ELb1EE7get_bitEi", metadata !46, i32 1662, metadata !726, i1 false, i1 false, i32 0, i32 0, null, i32 256, i1 false, null, null, i32 0, metadata !58, i32 1662} ; [ DW_TAG_subprogram ]
!736 = metadata !{i32 786478, i32 0, metadata !592, metadata !"b_not", metadata !"b_not", metadata !"_ZN11ap_int_baseILi33ELb1ELb1EE5b_notEv", metadata !46, i32 1667, metadata !606, i1 false, i1 false, i32 0, i32 0, null, i32 256, i1 false, null, null, i32 0, metadata !58, i32 1667} ; [ DW_TAG_subprogram ]
!737 = metadata !{i32 786478, i32 0, metadata !592, metadata !"countLeadingZeros", metadata !"countLeadingZeros", metadata !"_ZN11ap_int_baseILi33ELb1ELb1EE17countLeadingZerosEv", metadata !46, i32 1674, metadata !738, i1 false, i1 false, i32 0, i32 0, null, i32 256, i1 false, null, null, i32 0, metadata !58, i32 1674} ; [ DW_TAG_subprogram ]
!738 = metadata !{i32 786453, i32 0, metadata !"", i32 0, i32 0, i64 0, i64 0, i64 0, i32 0, null, metadata !739, i32 0, i32 0} ; [ DW_TAG_subroutine_type ]
!739 = metadata !{metadata !67, metadata !608}
!740 = metadata !{i32 786478, i32 0, metadata !592, metadata !"operator++", metadata !"operator++", metadata !"_ZN11ap_int_baseILi33ELb1ELb1EEppEv", metadata !46, i32 1731, metadata !718, i1 false, i1 false, i32 0, i32 0, null, i32 256, i1 false, null, null, i32 0, metadata !58, i32 1731} ; [ DW_TAG_subprogram ]
!741 = metadata !{i32 786478, i32 0, metadata !592, metadata !"operator--", metadata !"operator--", metadata !"_ZN11ap_int_baseILi33ELb1ELb1EEmmEv", metadata !46, i32 1735, metadata !718, i1 false, i1 false, i32 0, i32 0, null, i32 256, i1 false, null, null, i32 0, metadata !58, i32 1735} ; [ DW_TAG_subprogram ]
!742 = metadata !{i32 786478, i32 0, metadata !592, metadata !"operator++", metadata !"operator++", metadata !"_ZN11ap_int_baseILi33ELb1ELb1EEppEi", metadata !46, i32 1743, metadata !743, i1 false, i1 false, i32 0, i32 0, null, i32 256, i1 false, null, null, i32 0, metadata !58, i32 1743} ; [ DW_TAG_subprogram ]
!743 = metadata !{i32 786453, i32 0, metadata !"", i32 0, i32 0, i64 0, i64 0, i64 0, i32 0, null, metadata !744, i32 0, i32 0} ; [ DW_TAG_subroutine_type ]
!744 = metadata !{metadata !686, metadata !608, metadata !67}
!745 = metadata !{i32 786478, i32 0, metadata !592, metadata !"operator--", metadata !"operator--", metadata !"_ZN11ap_int_baseILi33ELb1ELb1EEmmEi", metadata !46, i32 1748, metadata !743, i1 false, i1 false, i32 0, i32 0, null, i32 256, i1 false, null, null, i32 0, metadata !58, i32 1748} ; [ DW_TAG_subprogram ]
!746 = metadata !{i32 786478, i32 0, metadata !592, metadata !"operator+", metadata !"operator+", metadata !"_ZNK11ap_int_baseILi33ELb1ELb1EEpsEv", metadata !46, i32 1757, metadata !747, i1 false, i1 false, i32 0, i32 0, null, i32 256, i1 false, null, null, i32 0, metadata !58, i32 1757} ; [ DW_TAG_subprogram ]
!747 = metadata !{i32 786453, i32 0, metadata !"", i32 0, i32 0, i64 0, i64 0, i64 0, i32 0, null, metadata !748, i32 0, i32 0} ; [ DW_TAG_subroutine_type ]
!748 = metadata !{metadata !592, metadata !685}
!749 = metadata !{i32 786478, i32 0, metadata !592, metadata !"operator!", metadata !"operator!", metadata !"_ZNK11ap_int_baseILi33ELb1ELb1EEntEv", metadata !46, i32 1763, metadata !688, i1 false, i1 false, i32 0, i32 0, null, i32 256, i1 false, null, null, i32 0, metadata !58, i32 1763} ; [ DW_TAG_subprogram ]
!750 = metadata !{i32 786478, i32 0, metadata !592, metadata !"operator-", metadata !"operator-", metadata !"_ZNK11ap_int_baseILi33ELb1ELb1EEngEv", metadata !46, i32 1768, metadata !751, i1 false, i1 false, i32 0, i32 0, null, i32 256, i1 false, null, null, i32 0, metadata !58, i32 1768} ; [ DW_TAG_subprogram ]
!751 = metadata !{i32 786453, i32 0, metadata !"", i32 0, i32 0, i64 0, i64 0, i64 0, i32 0, null, metadata !752, i32 0, i32 0} ; [ DW_TAG_subroutine_type ]
!752 = metadata !{metadata !753, metadata !685}
!753 = metadata !{i32 786434, null, metadata !"ap_int_base<34, true, true>", metadata !46, i32 605, i32 0, i32 0, i32 0, i32 4, null, null, i32 0} ; [ DW_TAG_class_type ]
!754 = metadata !{i32 786478, i32 0, metadata !592, metadata !"range", metadata !"range", metadata !"_ZN11ap_int_baseILi33ELb1ELb1EE5rangeEii", metadata !46, i32 1898, metadata !755, i1 false, i1 false, i32 0, i32 0, null, i32 256, i1 false, null, null, i32 0, metadata !58, i32 1898} ; [ DW_TAG_subprogram ]
!755 = metadata !{i32 786453, i32 0, metadata !"", i32 0, i32 0, i64 0, i64 0, i64 0, i32 0, null, metadata !756, i32 0, i32 0} ; [ DW_TAG_subroutine_type ]
!756 = metadata !{metadata !757, metadata !608, metadata !67, metadata !67}
!757 = metadata !{i32 786434, null, metadata !"ap_range_ref<33, true>", metadata !46, i32 878, i32 0, i32 0, i32 0, i32 4, null, null, i32 0} ; [ DW_TAG_class_type ]
!758 = metadata !{i32 786478, i32 0, metadata !592, metadata !"operator()", metadata !"operator()", metadata !"_ZN11ap_int_baseILi33ELb1ELb1EEclEii", metadata !46, i32 1904, metadata !755, i1 false, i1 false, i32 0, i32 0, null, i32 256, i1 false, null, null, i32 0, metadata !58, i32 1904} ; [ DW_TAG_subprogram ]
!759 = metadata !{i32 786478, i32 0, metadata !592, metadata !"range", metadata !"range", metadata !"_ZNK11ap_int_baseILi33ELb1ELb1EE5rangeEii", metadata !46, i32 1910, metadata !760, i1 false, i1 false, i32 0, i32 0, null, i32 256, i1 false, null, null, i32 0, metadata !58, i32 1910} ; [ DW_TAG_subprogram ]
!760 = metadata !{i32 786453, i32 0, metadata !"", i32 0, i32 0, i64 0, i64 0, i64 0, i32 0, null, metadata !761, i32 0, i32 0} ; [ DW_TAG_subroutine_type ]
!761 = metadata !{metadata !757, metadata !685, metadata !67, metadata !67}
!762 = metadata !{i32 786478, i32 0, metadata !592, metadata !"operator()", metadata !"operator()", metadata !"_ZNK11ap_int_baseILi33ELb1ELb1EEclEii", metadata !46, i32 1916, metadata !760, i1 false, i1 false, i32 0, i32 0, null, i32 256, i1 false, null, null, i32 0, metadata !58, i32 1916} ; [ DW_TAG_subprogram ]
!763 = metadata !{i32 786478, i32 0, metadata !592, metadata !"operator[]", metadata !"operator[]", metadata !"_ZN11ap_int_baseILi33ELb1ELb1EEixEi", metadata !46, i32 1935, metadata !764, i1 false, i1 false, i32 0, i32 0, null, i32 256, i1 false, null, null, i32 0, metadata !58, i32 1935} ; [ DW_TAG_subprogram ]
!764 = metadata !{i32 786453, i32 0, metadata !"", i32 0, i32 0, i64 0, i64 0, i64 0, i32 0, null, metadata !765, i32 0, i32 0} ; [ DW_TAG_subroutine_type ]
!765 = metadata !{metadata !766, metadata !608, metadata !67}
!766 = metadata !{i32 786434, null, metadata !"ap_bit_ref<33, true>", metadata !46, i32 1124, i64 128, i64 64, i32 0, i32 0, null, metadata !767, i32 0, null, metadata !799} ; [ DW_TAG_class_type ]
!767 = metadata !{metadata !768, metadata !769, metadata !770, metadata !775, metadata !779, metadata !784, metadata !785, metadata !788, metadata !791, metadata !792, metadata !795, metadata !796}
!768 = metadata !{i32 786445, metadata !766, metadata !"d_bv", metadata !46, i32 1125, i64 64, i64 64, i64 0, i32 0, metadata !662} ; [ DW_TAG_member ]
!769 = metadata !{i32 786445, metadata !766, metadata !"d_index", metadata !46, i32 1126, i64 32, i64 32, i64 64, i32 0, metadata !67} ; [ DW_TAG_member ]
!770 = metadata !{i32 786478, i32 0, metadata !766, metadata !"ap_bit_ref", metadata !"ap_bit_ref", metadata !"", metadata !46, i32 1129, metadata !771, i1 false, i1 false, i32 0, i32 0, null, i32 256, i1 false, null, null, i32 0, metadata !58, i32 1129} ; [ DW_TAG_subprogram ]
!771 = metadata !{i32 786453, i32 0, metadata !"", i32 0, i32 0, i64 0, i64 0, i64 0, i32 0, null, metadata !772, i32 0, i32 0} ; [ DW_TAG_subroutine_type ]
!772 = metadata !{null, metadata !773, metadata !774}
!773 = metadata !{i32 786447, i32 0, metadata !"", i32 0, i32 0, i64 64, i64 64, i64 0, i32 64, metadata !766} ; [ DW_TAG_pointer_type ]
!774 = metadata !{i32 786448, null, null, null, i32 0, i64 0, i64 0, i64 0, i32 0, metadata !766} ; [ DW_TAG_reference_type ]
!775 = metadata !{i32 786478, i32 0, metadata !766, metadata !"ap_bit_ref", metadata !"ap_bit_ref", metadata !"", metadata !46, i32 1132, metadata !776, i1 false, i1 false, i32 0, i32 0, null, i32 256, i1 false, null, null, i32 0, metadata !58, i32 1132} ; [ DW_TAG_subprogram ]
!776 = metadata !{i32 786453, i32 0, metadata !"", i32 0, i32 0, i64 0, i64 0, i64 0, i32 0, null, metadata !777, i32 0, i32 0} ; [ DW_TAG_subroutine_type ]
!777 = metadata !{null, metadata !773, metadata !778, metadata !67}
!778 = metadata !{i32 786447, null, metadata !"", null, i32 0, i64 64, i64 64, i64 0, i32 0, metadata !592} ; [ DW_TAG_pointer_type ]
!779 = metadata !{i32 786478, i32 0, metadata !766, metadata !"operator _Bool", metadata !"operator _Bool", metadata !"_ZNK10ap_bit_refILi33ELb1EEcvbEv", metadata !46, i32 1134, metadata !780, i1 false, i1 false, i32 0, i32 0, null, i32 256, i1 false, null, null, i32 0, metadata !58, i32 1134} ; [ DW_TAG_subprogram ]
!780 = metadata !{i32 786453, i32 0, metadata !"", i32 0, i32 0, i64 0, i64 0, i64 0, i32 0, null, metadata !781, i32 0, i32 0} ; [ DW_TAG_subroutine_type ]
!781 = metadata !{metadata !38, metadata !782}
!782 = metadata !{i32 786447, i32 0, metadata !"", i32 0, i32 0, i64 64, i64 64, i64 0, i32 64, metadata !783} ; [ DW_TAG_pointer_type ]
!783 = metadata !{i32 786470, null, metadata !"", null, i32 0, i64 0, i64 0, i64 0, i32 0, metadata !766} ; [ DW_TAG_const_type ]
!784 = metadata !{i32 786478, i32 0, metadata !766, metadata !"to_bool", metadata !"to_bool", metadata !"_ZNK10ap_bit_refILi33ELb1EE7to_boolEv", metadata !46, i32 1135, metadata !780, i1 false, i1 false, i32 0, i32 0, null, i32 256, i1 false, null, null, i32 0, metadata !58, i32 1135} ; [ DW_TAG_subprogram ]
!785 = metadata !{i32 786478, i32 0, metadata !766, metadata !"operator=", metadata !"operator=", metadata !"_ZN10ap_bit_refILi33ELb1EEaSEy", metadata !46, i32 1137, metadata !786, i1 false, i1 false, i32 0, i32 0, null, i32 256, i1 false, null, null, i32 0, metadata !58, i32 1137} ; [ DW_TAG_subprogram ]
!786 = metadata !{i32 786453, i32 0, metadata !"", i32 0, i32 0, i64 0, i64 0, i64 0, i32 0, null, metadata !787, i32 0, i32 0} ; [ DW_TAG_subroutine_type ]
!787 = metadata !{metadata !774, metadata !773, metadata !124}
!788 = metadata !{i32 786478, i32 0, metadata !766, metadata !"operator=", metadata !"operator=", metadata !"_ZN10ap_bit_refILi33ELb1EEaSERKS0_", metadata !46, i32 1157, metadata !789, i1 false, i1 false, i32 0, i32 0, null, i32 256, i1 false, null, null, i32 0, metadata !58, i32 1157} ; [ DW_TAG_subprogram ]
!789 = metadata !{i32 786453, i32 0, metadata !"", i32 0, i32 0, i64 0, i64 0, i64 0, i32 0, null, metadata !790, i32 0, i32 0} ; [ DW_TAG_subroutine_type ]
!790 = metadata !{metadata !774, metadata !773, metadata !774}
!791 = metadata !{i32 786478, i32 0, metadata !766, metadata !"get", metadata !"get", metadata !"_ZNK10ap_bit_refILi33ELb1EE3getEv", metadata !46, i32 1265, metadata !780, i1 false, i1 false, i32 0, i32 0, null, i32 256, i1 false, null, null, i32 0, metadata !58, i32 1265} ; [ DW_TAG_subprogram ]
!792 = metadata !{i32 786478, i32 0, metadata !766, metadata !"get", metadata !"get", metadata !"_ZN10ap_bit_refILi33ELb1EE3getEv", metadata !46, i32 1269, metadata !793, i1 false, i1 false, i32 0, i32 0, null, i32 256, i1 false, null, null, i32 0, metadata !58, i32 1269} ; [ DW_TAG_subprogram ]
!793 = metadata !{i32 786453, i32 0, metadata !"", i32 0, i32 0, i64 0, i64 0, i64 0, i32 0, null, metadata !794, i32 0, i32 0} ; [ DW_TAG_subroutine_type ]
!794 = metadata !{metadata !38, metadata !773}
!795 = metadata !{i32 786478, i32 0, metadata !766, metadata !"operator~", metadata !"operator~", metadata !"_ZNK10ap_bit_refILi33ELb1EEcoEv", metadata !46, i32 1278, metadata !780, i1 false, i1 false, i32 0, i32 0, null, i32 256, i1 false, null, null, i32 0, metadata !58, i32 1278} ; [ DW_TAG_subprogram ]
!796 = metadata !{i32 786478, i32 0, metadata !766, metadata !"length", metadata !"length", metadata !"_ZNK10ap_bit_refILi33ELb1EE6lengthEv", metadata !46, i32 1283, metadata !797, i1 false, i1 false, i32 0, i32 0, null, i32 256, i1 false, null, null, i32 0, metadata !58, i32 1283} ; [ DW_TAG_subprogram ]
!797 = metadata !{i32 786453, i32 0, metadata !"", i32 0, i32 0, i64 0, i64 0, i64 0, i32 0, null, metadata !798, i32 0, i32 0} ; [ DW_TAG_subroutine_type ]
!798 = metadata !{metadata !67, metadata !782}
!799 = metadata !{metadata !800, metadata !434}
!800 = metadata !{i32 786480, null, metadata !"_AP_W", metadata !67, i64 33, null, i32 0, i32 0} ; [ DW_TAG_template_value_parameter ]
!801 = metadata !{i32 786478, i32 0, metadata !592, metadata !"operator[]", metadata !"operator[]", metadata !"_ZNK11ap_int_baseILi33ELb1ELb1EEixEi", metadata !46, i32 1949, metadata !726, i1 false, i1 false, i32 0, i32 0, null, i32 256, i1 false, null, null, i32 0, metadata !58, i32 1949} ; [ DW_TAG_subprogram ]
!802 = metadata !{i32 786478, i32 0, metadata !592, metadata !"bit", metadata !"bit", metadata !"_ZN11ap_int_baseILi33ELb1ELb1EE3bitEi", metadata !46, i32 1963, metadata !764, i1 false, i1 false, i32 0, i32 0, null, i32 256, i1 false, null, null, i32 0, metadata !58, i32 1963} ; [ DW_TAG_subprogram ]
!803 = metadata !{i32 786478, i32 0, metadata !592, metadata !"bit", metadata !"bit", metadata !"_ZNK11ap_int_baseILi33ELb1ELb1EE3bitEi", metadata !46, i32 1977, metadata !726, i1 false, i1 false, i32 0, i32 0, null, i32 256, i1 false, null, null, i32 0, metadata !58, i32 1977} ; [ DW_TAG_subprogram ]
!804 = metadata !{i32 786478, i32 0, metadata !592, metadata !"and_reduce", metadata !"and_reduce", metadata !"_ZN11ap_int_baseILi33ELb1ELb1EE10and_reduceEv", metadata !46, i32 2157, metadata !805, i1 false, i1 false, i32 0, i32 0, null, i32 256, i1 false, null, null, i32 0, metadata !58, i32 2157} ; [ DW_TAG_subprogram ]
!805 = metadata !{i32 786453, i32 0, metadata !"", i32 0, i32 0, i64 0, i64 0, i64 0, i32 0, null, metadata !806, i32 0, i32 0} ; [ DW_TAG_subroutine_type ]
!806 = metadata !{metadata !38, metadata !608}
!807 = metadata !{i32 786478, i32 0, metadata !592, metadata !"nand_reduce", metadata !"nand_reduce", metadata !"_ZN11ap_int_baseILi33ELb1ELb1EE11nand_reduceEv", metadata !46, i32 2160, metadata !805, i1 false, i1 false, i32 0, i32 0, null, i32 256, i1 false, null, null, i32 0, metadata !58, i32 2160} ; [ DW_TAG_subprogram ]
!808 = metadata !{i32 786478, i32 0, metadata !592, metadata !"or_reduce", metadata !"or_reduce", metadata !"_ZN11ap_int_baseILi33ELb1ELb1EE9or_reduceEv", metadata !46, i32 2163, metadata !805, i1 false, i1 false, i32 0, i32 0, null, i32 256, i1 false, null, null, i32 0, metadata !58, i32 2163} ; [ DW_TAG_subprogram ]
!809 = metadata !{i32 786478, i32 0, metadata !592, metadata !"nor_reduce", metadata !"nor_reduce", metadata !"_ZN11ap_int_baseILi33ELb1ELb1EE10nor_reduceEv", metadata !46, i32 2166, metadata !805, i1 false, i1 false, i32 0, i32 0, null, i32 256, i1 false, null, null, i32 0, metadata !58, i32 2166} ; [ DW_TAG_subprogram ]
!810 = metadata !{i32 786478, i32 0, metadata !592, metadata !"xor_reduce", metadata !"xor_reduce", metadata !"_ZN11ap_int_baseILi33ELb1ELb1EE10xor_reduceEv", metadata !46, i32 2169, metadata !805, i1 false, i1 false, i32 0, i32 0, null, i32 256, i1 false, null, null, i32 0, metadata !58, i32 2169} ; [ DW_TAG_subprogram ]
!811 = metadata !{i32 786478, i32 0, metadata !592, metadata !"xnor_reduce", metadata !"xnor_reduce", metadata !"_ZN11ap_int_baseILi33ELb1ELb1EE11xnor_reduceEv", metadata !46, i32 2172, metadata !805, i1 false, i1 false, i32 0, i32 0, null, i32 256, i1 false, null, null, i32 0, metadata !58, i32 2172} ; [ DW_TAG_subprogram ]
!812 = metadata !{i32 786478, i32 0, metadata !592, metadata !"and_reduce", metadata !"and_reduce", metadata !"_ZNK11ap_int_baseILi33ELb1ELb1EE10and_reduceEv", metadata !46, i32 2176, metadata !688, i1 false, i1 false, i32 0, i32 0, null, i32 256, i1 false, null, null, i32 0, metadata !58, i32 2176} ; [ DW_TAG_subprogram ]
!813 = metadata !{i32 786478, i32 0, metadata !592, metadata !"nand_reduce", metadata !"nand_reduce", metadata !"_ZNK11ap_int_baseILi33ELb1ELb1EE11nand_reduceEv", metadata !46, i32 2179, metadata !688, i1 false, i1 false, i32 0, i32 0, null, i32 256, i1 false, null, null, i32 0, metadata !58, i32 2179} ; [ DW_TAG_subprogram ]
!814 = metadata !{i32 786478, i32 0, metadata !592, metadata !"or_reduce", metadata !"or_reduce", metadata !"_ZNK11ap_int_baseILi33ELb1ELb1EE9or_reduceEv", metadata !46, i32 2182, metadata !688, i1 false, i1 false, i32 0, i32 0, null, i32 256, i1 false, null, null, i32 0, metadata !58, i32 2182} ; [ DW_TAG_subprogram ]
!815 = metadata !{i32 786478, i32 0, metadata !592, metadata !"nor_reduce", metadata !"nor_reduce", metadata !"_ZNK11ap_int_baseILi33ELb1ELb1EE10nor_reduceEv", metadata !46, i32 2185, metadata !688, i1 false, i1 false, i32 0, i32 0, null, i32 256, i1 false, null, null, i32 0, metadata !58, i32 2185} ; [ DW_TAG_subprogram ]
!816 = metadata !{i32 786478, i32 0, metadata !592, metadata !"xor_reduce", metadata !"xor_reduce", metadata !"_ZNK11ap_int_baseILi33ELb1ELb1EE10xor_reduceEv", metadata !46, i32 2188, metadata !688, i1 false, i1 false, i32 0, i32 0, null, i32 256, i1 false, null, null, i32 0, metadata !58, i32 2188} ; [ DW_TAG_subprogram ]
!817 = metadata !{i32 786478, i32 0, metadata !592, metadata !"xnor_reduce", metadata !"xnor_reduce", metadata !"_ZNK11ap_int_baseILi33ELb1ELb1EE11xnor_reduceEv", metadata !46, i32 2191, metadata !688, i1 false, i1 false, i32 0, i32 0, null, i32 256, i1 false, null, null, i32 0, metadata !58, i32 2191} ; [ DW_TAG_subprogram ]
!818 = metadata !{i32 786478, i32 0, metadata !592, metadata !"to_string", metadata !"to_string", metadata !"_ZNK11ap_int_baseILi33ELb1ELb1EE9to_stringEPci8BaseModeb", metadata !46, i32 2198, metadata !819, i1 false, i1 false, i32 0, i32 0, null, i32 256, i1 false, null, null, i32 0, metadata !58, i32 2198} ; [ DW_TAG_subprogram ]
!819 = metadata !{i32 786453, i32 0, metadata !"", i32 0, i32 0, i64 0, i64 0, i64 0, i32 0, null, metadata !820, i32 0, i32 0} ; [ DW_TAG_subroutine_type ]
!820 = metadata !{null, metadata !685, metadata !278, metadata !67, metadata !279, metadata !38}
!821 = metadata !{i32 786478, i32 0, metadata !592, metadata !"to_string", metadata !"to_string", metadata !"_ZNK11ap_int_baseILi33ELb1ELb1EE9to_stringE8BaseModeb", metadata !46, i32 2225, metadata !822, i1 false, i1 false, i32 0, i32 0, null, i32 256, i1 false, null, null, i32 0, metadata !58, i32 2225} ; [ DW_TAG_subprogram ]
!822 = metadata !{i32 786453, i32 0, metadata !"", i32 0, i32 0, i64 0, i64 0, i64 0, i32 0, null, metadata !823, i32 0, i32 0} ; [ DW_TAG_subroutine_type ]
!823 = metadata !{metadata !278, metadata !685, metadata !279, metadata !38}
!824 = metadata !{i32 786478, i32 0, metadata !592, metadata !"to_string", metadata !"to_string", metadata !"_ZNK11ap_int_baseILi33ELb1ELb1EE9to_stringEab", metadata !46, i32 2229, metadata !825, i1 false, i1 false, i32 0, i32 0, null, i32 256, i1 false, null, null, i32 0, metadata !58, i32 2229} ; [ DW_TAG_subprogram ]
!825 = metadata !{i32 786453, i32 0, metadata !"", i32 0, i32 0, i64 0, i64 0, i64 0, i32 0, null, metadata !826, i32 0, i32 0} ; [ DW_TAG_subroutine_type ]
!826 = metadata !{metadata !278, metadata !685, metadata !87, metadata !38}
!827 = metadata !{i32 786478, i32 0, metadata !421, metadata !"range", metadata !"range", metadata !"_ZN11ap_int_baseILi32ELb1ELb1EE5rangeEii", metadata !46, i32 1898, metadata !828, i1 false, i1 false, i32 0, i32 0, null, i32 256, i1 false, null, null, i32 0, metadata !58, i32 1898} ; [ DW_TAG_subprogram ]
!828 = metadata !{i32 786453, i32 0, metadata !"", i32 0, i32 0, i64 0, i64 0, i64 0, i32 0, null, metadata !829, i32 0, i32 0} ; [ DW_TAG_subroutine_type ]
!829 = metadata !{metadata !830, metadata !438, metadata !67, metadata !67}
!830 = metadata !{i32 786434, null, metadata !"ap_range_ref<32, true>", metadata !46, i32 878, i32 0, i32 0, i32 0, i32 4, null, null, i32 0} ; [ DW_TAG_class_type ]
!831 = metadata !{i32 786478, i32 0, metadata !421, metadata !"operator()", metadata !"operator()", metadata !"_ZN11ap_int_baseILi32ELb1ELb1EEclEii", metadata !46, i32 1904, metadata !828, i1 false, i1 false, i32 0, i32 0, null, i32 256, i1 false, null, null, i32 0, metadata !58, i32 1904} ; [ DW_TAG_subprogram ]
!832 = metadata !{i32 786478, i32 0, metadata !421, metadata !"range", metadata !"range", metadata !"_ZNK11ap_int_baseILi32ELb1ELb1EE5rangeEii", metadata !46, i32 1910, metadata !833, i1 false, i1 false, i32 0, i32 0, null, i32 256, i1 false, null, null, i32 0, metadata !58, i32 1910} ; [ DW_TAG_subprogram ]
!833 = metadata !{i32 786453, i32 0, metadata !"", i32 0, i32 0, i64 0, i64 0, i64 0, i32 0, null, metadata !834, i32 0, i32 0} ; [ DW_TAG_subroutine_type ]
!834 = metadata !{metadata !830, metadata !524, metadata !67, metadata !67}
!835 = metadata !{i32 786478, i32 0, metadata !421, metadata !"operator()", metadata !"operator()", metadata !"_ZNK11ap_int_baseILi32ELb1ELb1EEclEii", metadata !46, i32 1916, metadata !833, i1 false, i1 false, i32 0, i32 0, null, i32 256, i1 false, null, null, i32 0, metadata !58, i32 1916} ; [ DW_TAG_subprogram ]
!836 = metadata !{i32 786478, i32 0, metadata !421, metadata !"operator[]", metadata !"operator[]", metadata !"_ZN11ap_int_baseILi32ELb1ELb1EEixEi", metadata !46, i32 1935, metadata !837, i1 false, i1 false, i32 0, i32 0, null, i32 256, i1 false, null, null, i32 0, metadata !58, i32 1935} ; [ DW_TAG_subprogram ]
!837 = metadata !{i32 786453, i32 0, metadata !"", i32 0, i32 0, i64 0, i64 0, i64 0, i32 0, null, metadata !838, i32 0, i32 0} ; [ DW_TAG_subroutine_type ]
!838 = metadata !{metadata !839, metadata !438, metadata !67}
!839 = metadata !{i32 786434, null, metadata !"ap_bit_ref<32, true>", metadata !46, i32 1124, i32 0, i32 0, i32 0, i32 4, null, null, i32 0} ; [ DW_TAG_class_type ]
!840 = metadata !{i32 786478, i32 0, metadata !421, metadata !"operator[]", metadata !"operator[]", metadata !"_ZNK11ap_int_baseILi32ELb1ELb1EEixEi", metadata !46, i32 1949, metadata !565, i1 false, i1 false, i32 0, i32 0, null, i32 256, i1 false, null, null, i32 0, metadata !58, i32 1949} ; [ DW_TAG_subprogram ]
!841 = metadata !{i32 786478, i32 0, metadata !421, metadata !"bit", metadata !"bit", metadata !"_ZN11ap_int_baseILi32ELb1ELb1EE3bitEi", metadata !46, i32 1963, metadata !837, i1 false, i1 false, i32 0, i32 0, null, i32 256, i1 false, null, null, i32 0, metadata !58, i32 1963} ; [ DW_TAG_subprogram ]
!842 = metadata !{i32 786478, i32 0, metadata !421, metadata !"bit", metadata !"bit", metadata !"_ZNK11ap_int_baseILi32ELb1ELb1EE3bitEi", metadata !46, i32 1977, metadata !565, i1 false, i1 false, i32 0, i32 0, null, i32 256, i1 false, null, null, i32 0, metadata !58, i32 1977} ; [ DW_TAG_subprogram ]
!843 = metadata !{i32 786478, i32 0, metadata !421, metadata !"and_reduce", metadata !"and_reduce", metadata !"_ZN11ap_int_baseILi32ELb1ELb1EE10and_reduceEv", metadata !46, i32 2157, metadata !844, i1 false, i1 false, i32 0, i32 0, null, i32 256, i1 false, null, null, i32 0, metadata !58, i32 2157} ; [ DW_TAG_subprogram ]
!844 = metadata !{i32 786453, i32 0, metadata !"", i32 0, i32 0, i64 0, i64 0, i64 0, i32 0, null, metadata !845, i32 0, i32 0} ; [ DW_TAG_subroutine_type ]
!845 = metadata !{metadata !38, metadata !438}
!846 = metadata !{i32 786478, i32 0, metadata !421, metadata !"nand_reduce", metadata !"nand_reduce", metadata !"_ZN11ap_int_baseILi32ELb1ELb1EE11nand_reduceEv", metadata !46, i32 2160, metadata !844, i1 false, i1 false, i32 0, i32 0, null, i32 256, i1 false, null, null, i32 0, metadata !58, i32 2160} ; [ DW_TAG_subprogram ]
!847 = metadata !{i32 786478, i32 0, metadata !421, metadata !"or_reduce", metadata !"or_reduce", metadata !"_ZN11ap_int_baseILi32ELb1ELb1EE9or_reduceEv", metadata !46, i32 2163, metadata !844, i1 false, i1 false, i32 0, i32 0, null, i32 256, i1 false, null, null, i32 0, metadata !58, i32 2163} ; [ DW_TAG_subprogram ]
!848 = metadata !{i32 786478, i32 0, metadata !421, metadata !"nor_reduce", metadata !"nor_reduce", metadata !"_ZN11ap_int_baseILi32ELb1ELb1EE10nor_reduceEv", metadata !46, i32 2166, metadata !844, i1 false, i1 false, i32 0, i32 0, null, i32 256, i1 false, null, null, i32 0, metadata !58, i32 2166} ; [ DW_TAG_subprogram ]
!849 = metadata !{i32 786478, i32 0, metadata !421, metadata !"xor_reduce", metadata !"xor_reduce", metadata !"_ZN11ap_int_baseILi32ELb1ELb1EE10xor_reduceEv", metadata !46, i32 2169, metadata !844, i1 false, i1 false, i32 0, i32 0, null, i32 256, i1 false, null, null, i32 0, metadata !58, i32 2169} ; [ DW_TAG_subprogram ]
!850 = metadata !{i32 786478, i32 0, metadata !421, metadata !"xnor_reduce", metadata !"xnor_reduce", metadata !"_ZN11ap_int_baseILi32ELb1ELb1EE11xnor_reduceEv", metadata !46, i32 2172, metadata !844, i1 false, i1 false, i32 0, i32 0, null, i32 256, i1 false, null, null, i32 0, metadata !58, i32 2172} ; [ DW_TAG_subprogram ]
!851 = metadata !{i32 786478, i32 0, metadata !421, metadata !"and_reduce", metadata !"and_reduce", metadata !"_ZNK11ap_int_baseILi32ELb1ELb1EE10and_reduceEv", metadata !46, i32 2176, metadata !527, i1 false, i1 false, i32 0, i32 0, null, i32 256, i1 false, null, null, i32 0, metadata !58, i32 2176} ; [ DW_TAG_subprogram ]
!852 = metadata !{i32 786478, i32 0, metadata !421, metadata !"nand_reduce", metadata !"nand_reduce", metadata !"_ZNK11ap_int_baseILi32ELb1ELb1EE11nand_reduceEv", metadata !46, i32 2179, metadata !527, i1 false, i1 false, i32 0, i32 0, null, i32 256, i1 false, null, null, i32 0, metadata !58, i32 2179} ; [ DW_TAG_subprogram ]
!853 = metadata !{i32 786478, i32 0, metadata !421, metadata !"or_reduce", metadata !"or_reduce", metadata !"_ZNK11ap_int_baseILi32ELb1ELb1EE9or_reduceEv", metadata !46, i32 2182, metadata !527, i1 false, i1 false, i32 0, i32 0, null, i32 256, i1 false, null, null, i32 0, metadata !58, i32 2182} ; [ DW_TAG_subprogram ]
!854 = metadata !{i32 786478, i32 0, metadata !421, metadata !"nor_reduce", metadata !"nor_reduce", metadata !"_ZNK11ap_int_baseILi32ELb1ELb1EE10nor_reduceEv", metadata !46, i32 2185, metadata !527, i1 false, i1 false, i32 0, i32 0, null, i32 256, i1 false, null, null, i32 0, metadata !58, i32 2185} ; [ DW_TAG_subprogram ]
!855 = metadata !{i32 786478, i32 0, metadata !421, metadata !"xor_reduce", metadata !"xor_reduce", metadata !"_ZNK11ap_int_baseILi32ELb1ELb1EE10xor_reduceEv", metadata !46, i32 2188, metadata !527, i1 false, i1 false, i32 0, i32 0, null, i32 256, i1 false, null, null, i32 0, metadata !58, i32 2188} ; [ DW_TAG_subprogram ]
!856 = metadata !{i32 786478, i32 0, metadata !421, metadata !"xnor_reduce", metadata !"xnor_reduce", metadata !"_ZNK11ap_int_baseILi32ELb1ELb1EE11xnor_reduceEv", metadata !46, i32 2191, metadata !527, i1 false, i1 false, i32 0, i32 0, null, i32 256, i1 false, null, null, i32 0, metadata !58, i32 2191} ; [ DW_TAG_subprogram ]
!857 = metadata !{i32 786478, i32 0, metadata !421, metadata !"to_string", metadata !"to_string", metadata !"_ZNK11ap_int_baseILi32ELb1ELb1EE9to_stringEPci8BaseModeb", metadata !46, i32 2198, metadata !858, i1 false, i1 false, i32 0, i32 0, null, i32 256, i1 false, null, null, i32 0, metadata !58, i32 2198} ; [ DW_TAG_subprogram ]
!858 = metadata !{i32 786453, i32 0, metadata !"", i32 0, i32 0, i64 0, i64 0, i64 0, i32 0, null, metadata !859, i32 0, i32 0} ; [ DW_TAG_subroutine_type ]
!859 = metadata !{null, metadata !524, metadata !278, metadata !67, metadata !279, metadata !38}
!860 = metadata !{i32 786478, i32 0, metadata !421, metadata !"to_string", metadata !"to_string", metadata !"_ZNK11ap_int_baseILi32ELb1ELb1EE9to_stringE8BaseModeb", metadata !46, i32 2225, metadata !861, i1 false, i1 false, i32 0, i32 0, null, i32 256, i1 false, null, null, i32 0, metadata !58, i32 2225} ; [ DW_TAG_subprogram ]
!861 = metadata !{i32 786453, i32 0, metadata !"", i32 0, i32 0, i64 0, i64 0, i64 0, i32 0, null, metadata !862, i32 0, i32 0} ; [ DW_TAG_subroutine_type ]
!862 = metadata !{metadata !278, metadata !524, metadata !279, metadata !38}
!863 = metadata !{i32 786478, i32 0, metadata !421, metadata !"to_string", metadata !"to_string", metadata !"_ZNK11ap_int_baseILi32ELb1ELb1EE9to_stringEab", metadata !46, i32 2229, metadata !864, i1 false, i1 false, i32 0, i32 0, null, i32 256, i1 false, null, null, i32 0, metadata !58, i32 2229} ; [ DW_TAG_subprogram ]
!864 = metadata !{i32 786453, i32 0, metadata !"", i32 0, i32 0, i64 0, i64 0, i64 0, i32 0, null, metadata !865, i32 0, i32 0} ; [ DW_TAG_subroutine_type ]
!865 = metadata !{metadata !278, metadata !524, metadata !87, metadata !38}
!866 = metadata !{i32 786478, i32 0, metadata !421, metadata !"~ap_int_base", metadata !"~ap_int_base", metadata !"", metadata !46, i32 1302, metadata !436, i1 false, i1 false, i32 0, i32 0, null, i32 320, i1 false, null, null, i32 0, metadata !58, i32 1302} ; [ DW_TAG_subprogram ]
!867 = metadata !{metadata !868, metadata !434}
!868 = metadata !{i32 786480, null, metadata !"_AP_W", metadata !67, i64 32, null, i32 0, i32 0} ; [ DW_TAG_template_value_parameter ]
!869 = metadata !{i32 3359, i32 0, metadata !870, metadata !874}
!870 = metadata !{i32 786443, metadata !871, i32 3359, i32 6964, metadata !46, i32 5} ; [ DW_TAG_lexical_block ]
!871 = metadata !{i32 786478, i32 0, metadata !46, metadata !"operator+=<3, false>", metadata !"operator+=<3, false>", metadata !"_ZpLILi3ELb0EER11ap_int_baseIXT_EXT0_EXleT_Li64EEES2_i", metadata !46, i32 3359, metadata !872, i1 false, i1 true, i32 0, i32 0, null, i32 256, i1 false, null, metadata !295, null, metadata !58, i32 3359} ; [ DW_TAG_subprogram ]
!872 = metadata !{i32 786453, i32 0, metadata !"", i32 0, i32 0, i64 0, i64 0, i64 0, i32 0, null, metadata !873, i32 0, i32 0} ; [ DW_TAG_subroutine_type ]
!873 = metadata !{metadata !76, metadata !76, metadata !67}
!874 = metadata !{i32 19, i32 3, metadata !875, null}
!875 = metadata !{i32 786443, metadata !403, i32 18, i32 16, metadata !35, i32 2} ; [ DW_TAG_lexical_block ]
!876 = metadata !{i32 18, i32 2, metadata !403, null}
!877 = metadata !{i32 1715, i32 147, metadata !416, metadata !878}
!878 = metadata !{i32 3359, i32 0, metadata !870, metadata !879}
!879 = metadata !{i32 22, i32 3, metadata !880, null}
!880 = metadata !{i32 786443, metadata !403, i32 21, i32 16, metadata !35, i32 3} ; [ DW_TAG_lexical_block ]
!881 = metadata !{i32 21, i32 2, metadata !403, null}
!882 = metadata !{i32 24, i32 18, metadata !403, null}
!883 = metadata !{i32 25, i32 1, metadata !403, null}
